 binding

 Timestamp is 5ffb7ea5 (Sun Jan 10 22:24:37 2021)

 Preferred load address is 0000000180000000

 Start         Length     Name                   Class
 0001:00000000 000195c0H .text$mn                CODE
 0001:000195c0 00000020H .text$mn$00             CODE
 0001:000195e0 000002e0H .text$x                 CODE
 0002:00000000 00000258H .idata$5                DATA
 0002:00000258 00000028H .00cfg                  DATA
 0002:00000280 00000008H .CRT$XCA                DATA
 0002:00000288 00000008H .CRT$XCU                DATA
 0002:00000290 00000008H .CRT$XCZ                DATA
 0002:00000298 00000008H .CRT$XIA                DATA
 0002:000002a0 00000018H .CRT$XIC                DATA
 0002:000002b8 00000008H .CRT$XIZ                DATA
 0002:000002c0 00000008H .CRT$XPA                DATA
 0002:000002c8 00000010H .CRT$XPX                DATA
 0002:000002d8 00000008H .CRT$XPXA               DATA
 0002:000002e0 00000008H .CRT$XPZ                DATA
 0002:000002e8 00000008H .CRT$XTA                DATA
 0002:000002f0 00000010H .CRT$XTZ                DATA
 0002:000002f8 00000000H .gfids$y                DATA
 0002:00000300 000094e8H .rdata                  DATA
 0002:000097e8 000001f4H .rdata$r                DATA
 0002:000099dc 000003c4H .rdata$zzzdbg           DATA
 0002:00009da0 00000008H .rtc$IAA                DATA
 0002:00009da8 00000008H .rtc$IZZ                DATA
 0002:00009db0 00000008H .rtc$TAA                DATA
 0002:00009db8 00000008H .rtc$TZZ                DATA
 0002:00009dc0 00001410H .xdata                  DATA
 0002:0000b1d0 000000ecH .xdata$x                DATA
 0002:0000b2bc 00000020H .didat$2                DATA
 0002:0000b2dc 00000024H .didat$3                DATA
 0002:0000b300 00000168H .didat$4                DATA
 0002:0000b468 00000c30H .didat$6                DATA
 0002:0000c098 00000168H .didat$7                DATA
 0002:0000c200 00000054H .edata                  DATA
 0002:0000c254 00000014H .idata$2                DATA
 0002:0000c268 00000018H .idata$3                DATA
 0002:0000c280 00000258H .idata$4                DATA
 0002:0000c4d8 00000574H .idata$6                DATA
 0003:00000000 00000a90H .data                   DATA
 0003:00000a90 000000a0H .data$r                 DATA
 0003:00000b30 00000170H .didat$5                DATA
 0003:00000ca0 00001218H .bss                    DATA
 0004:00000000 000016bcH .pdata                  DATA
 0005:00000000 00000094H _RDATA                  DATA
 0006:00000000 00000060H .rsrc$01                DATA
 0006:00000060 00000180H .rsrc$02                DATA

  Address         Publics by Value              Rva+Base               Lib:Object

 0000:00000000       __guard_fids_count         0000000000000000     <absolute>
 0000:00000000       __guard_iat_count          0000000000000000     <absolute>
 0000:00000000       __guard_longjmp_count      0000000000000000     <absolute>
 0000:00000000       __guard_eh_cont_count      0000000000000000     <absolute>
 0000:00000000       __guard_longjmp_table      0000000000000000     <absolute>
 0000:00000000       __volatile_metadata        0000000000000000     <absolute>
 0000:00000000       __guard_iat_table          0000000000000000     <absolute>
 0000:00000000       __hybrid_code_map_count    0000000000000000     <absolute>
 0000:00000000       __hybrid_code_map          0000000000000000     <absolute>
 0000:00000000       __guard_eh_cont_table      0000000000000000     <absolute>
 0000:00000000       ___safe_se_handler_count   0000000000000000     <absolute>
 0000:00000000       __enclave_config           0000000000000000     <absolute>
 0000:00000000       __AbsoluteZero             0000000000000000     <absolute>
 0000:00000000       ___safe_se_handler_table   0000000000000000     <absolute>
 0000:00000000       __guard_fids_table         0000000000000000     <absolute>
 0000:00000000       __hybrid_auxiliary_iat     0000000000000000     <absolute>
 0000:00000000       __dynamic_value_reloc_table 0000000000000000     <absolute>
 0000:00000100       __guard_flags              0000000000000100     <absolute>
 0000:00000000       __ImageBase                0000000180000000     <linker-defined>
 0001:00000000       __local_stdio_printf_options 0000000180001000 f i binding.obj
 0001:00000010       _snprintf_s                0000000180001010 f i binding.obj
 0001:00000160       ?ForceSet@Nan@@YA?AV?$Maybe@_N@1@V?$Local@VObject@v8@@@v8@@V?$Local@VValue@v8@@@4@1W4PropertyAttribute@4@@Z 0000000180001160 f i binding.obj
 0001:00000750       _guard_check_icall_nop     0000000180001750 f   LIBCMT:guard_support.obj
 0001:000024d0       ?init@@YAXV?$Local@VObject@v8@@@v8@@@Z 00000001800034d0 f   binding.obj
 0001:00004be0       ??$SetMethod@VObject@v8@@VLocal@2@@Nan@@YAXV?$Local@VObject@v8@@@v8@@PEBDP6AXAEBV?$FunctionCallbackInfo@VValue@v8@@@0@@ZV?$Local@VValue@v8@@@2@@Z 0000000180005be0 f i binding.obj
 0001:00004e40       ??$invokeparameter@$00@?$WeakCallbackInfo@X@Nan@@CAXAEBV?$WeakCallbackInfo@V?$WeakCallbackInfo@X@Nan@@@v8@@@Z 0000000180005e40 f i binding.obj
 0001:00004e90       ??$SetMethodAux@V?$Local@VObject@v8@@@v8@@@imp@Nan@@YAXV?$Local@VObject@v8@@@v8@@V?$Local@VString@v8@@@3@V?$Local@VFunctionTemplate@v8@@@3@ZZ 0000000180005e90 f i binding.obj
 0001:00004f60       ??$invokeparameter@$0A@@?$WeakCallbackInfo@X@Nan@@CAXAEBV?$WeakCallbackInfo@V?$WeakCallbackInfo@X@Nan@@@v8@@@Z 0000000180005f60 f i binding.obj
 0001:00004fc4       __imp_load_?Value@External@v8@@QEBAPEAXXZ 0000000180005fc4 f   node:node.exe
 0001:00004fd0       __tailMerge_node_exe       0000000180005fd0     node:node.exe
 0001:00005049       __imp_load_?New@External@v8@@SA?AV?$Local@VExternal@v8@@@2@PEAVIsolate@2@PEAX@Z 0000000180006049 f   node:node.exe
 0001:00005055       __imp_load_?NewFromUnsigned@Integer@v8@@SA?AV?$Local@VInteger@v8@@@2@PEAVIsolate@2@I@Z 0000000180006055 f   node:node.exe
 0001:00005061       __imp_load_?ThrowException@Isolate@v8@@QEAA?AV?$Local@VValue@v8@@@2@V32@@Z 0000000180006061 f   node:node.exe
 0001:0000506d       __imp_load_?GetCurrentContext@Isolate@v8@@QEAA?AV?$Local@VContext@v8@@@2@XZ 000000018000606d f   node:node.exe
 0001:00005079       __imp_load_?GetCurrent@Isolate@v8@@SAPEAV12@XZ 0000000180006079 f   node:node.exe
 0001:00005085       __imp_load_?CreateHandle@HandleScope@v8@@KAPEAPEAVObject@internal@2@PEAVIsolate@42@PEAV342@@Z 0000000180006085 f   node:node.exe
 0001:00005091       __imp_load_?CreateHandle@HandleScope@v8@@CAPEAPEAVObject@internal@2@PEAVNeverReadOnlySpaceObject@42@PEAV342@@Z 0000000180006091 f   node:node.exe
 0001:0000509d       __imp_load_??1HandleScope@v8@@QEAA@XZ 000000018000609d f   node:node.exe
 0001:000050a9       __imp_load_??0HandleScope@v8@@QEAA@PEAVIsolate@1@@Z 00000001800060a9 f   node:node.exe
 0001:000050b5       __imp_load_?Error@Exception@v8@@SA?AV?$Local@VValue@v8@@@2@V?$Local@VString@v8@@@2@@Z 00000001800060b5 f   node:node.exe
 0001:000050c1       __imp_load_?TypeError@Exception@v8@@SA?AV?$Local@VValue@v8@@@2@V?$Local@VString@v8@@@2@@Z 00000001800060c1 f   node:node.exe
 0001:000050cd       __imp_load_?SetClassName@FunctionTemplate@v8@@QEAAXV?$Local@VString@v8@@@2@@Z 00000001800060cd f   node:node.exe
 0001:000050d9       __imp_load_?GetFunction@FunctionTemplate@v8@@QEAA?AV?$MaybeLocal@VFunction@v8@@@2@V?$Local@VContext@v8@@@2@@Z 00000001800060d9 f   node:node.exe
 0001:000050e5       __imp_load_?New@FunctionTemplate@v8@@SA?AV?$Local@VFunctionTemplate@v8@@@2@PEAVIsolate@2@P6AXAEBV?$FunctionCallbackInfo@VValue@v8@@@2@@ZV?$Local@VValue@v8@@@2@V?$Local@VSignature@v8@@@2@HW4ConstructorBehavior@2@W4SideEffectType@2@@Z 00000001800060e5 f   node:node.exe
 0001:000050f1       __imp_load_?ToLocalEmpty@V8@v8@@CAXXZ 00000001800060f1 f   node:node.exe
 0001:000050fd       __imp_load_?MakeWeak@V8@v8@@CAXPEAPEAVObject@internal@2@PEAXP6AXAEBV?$WeakCallbackInfo@X@2@@ZW4WeakCallbackType@2@@Z 00000001800060fd f   node:node.exe
 0001:00005109       __imp_load_?DisposeGlobal@V8@v8@@CAXPEAPEAVObject@internal@2@@Z 0000000180006109 f   node:node.exe
 0001:00005115       __imp_load_?GlobalizeReference@V8@v8@@CAPEAPEAVObject@internal@2@PEAVIsolate@42@PEAPEAV342@@Z 0000000180006115 f   node:node.exe
 0001:00005121       __imp_load_?Uint32Value@Value@v8@@QEBAIXZ 0000000180006121 f   node:node.exe
 0001:0000512d       __imp_load_?IntegerValue@Value@v8@@QEBA?AV?$Maybe@_J@2@V?$Local@VContext@v8@@@2@@Z 000000018000612d f   node:node.exe
 0001:00005139       __imp_load_?BooleanValue@Value@v8@@QEBA_NXZ 0000000180006139 f   node:node.exe
 0001:00005145       __imp_load_?ToUint32@Value@v8@@QEBA?AV?$MaybeLocal@VUint32@v8@@@2@V?$Local@VContext@v8@@@2@@Z 0000000180006145 f   node:node.exe
 0001:00005151       __imp_load_?IsNumber@Value@v8@@QEBA_NXZ 0000000180006151 f   node:node.exe
 0001:0000515d       __imp_load_?IsName@Value@v8@@QEBA_NXZ 000000018000615d f   node:node.exe
 0001:00005169       __imp_load_?Escape@EscapableHandleScope@v8@@AEAAPEAPEAVObject@internal@2@PEAPEAV342@@Z 0000000180006169 f   node:node.exe
 0001:00005175       __imp_load_??0EscapableHandleScope@v8@@QEAA@PEAVIsolate@1@@Z 0000000180006175 f   node:node.exe
 0001:00005181       __imp_load_??1Utf8Value@String@v8@@QEAA@XZ 0000000180006181 f   node:node.exe
 0001:0000518d       __imp_load_??0Utf8Value@String@v8@@QEAA@V?$Local@VValue@v8@@@2@@Z 000000018000618d f   node:node.exe
 0001:00005199       __imp_load_?NewFromUtf8@String@v8@@SA?AV?$MaybeLocal@VString@v8@@@2@PEAVIsolate@2@PEBDW4NewStringType@2@H@Z 0000000180006199 f   node:node.exe
 0001:000051a5       __imp_load_?New@Number@v8@@SA?AV?$Local@VNumber@v8@@@2@PEAVIsolate@2@N@Z 00000001800061a5 f   node:node.exe
 0001:000051b1       __imp_load_?SlowGetInternalField@Object@v8@@AEAA?AV?$Local@VValue@v8@@@2@H@Z 00000001800061b1 f   node:node.exe
 0001:000051bd       __imp_load_?New@Object@v8@@SA?AV?$Local@VObject@v8@@@2@PEAVIsolate@2@@Z 00000001800061bd f   node:node.exe
 0001:000051c9       __imp_load_?SetInternalField@Object@v8@@QEAAXHV?$Local@VValue@v8@@@2@@Z 00000001800061c9 f   node:node.exe
 0001:000051d5       __imp_load_?DefineOwnProperty@Object@v8@@QEAA?AV?$Maybe@_N@2@V?$Local@VContext@v8@@@2@V?$Local@VName@v8@@@2@V?$Local@VValue@v8@@@2@W4PropertyAttribute@2@@Z 00000001800061d5 f   node:node.exe
 0001:000051e1       __imp_load_?Set@Object@v8@@QEAA_NV?$Local@VValue@v8@@@2@0@Z 00000001800061e1 f   node:node.exe
 0001:000051ed       __imp_load_?Set@Object@v8@@QEAA?AV?$Maybe@_N@2@V?$Local@VContext@v8@@@2@V?$Local@VValue@v8@@@2@1@Z 00000001800061ed f   node:node.exe
 0001:000051f9       __imp_load_?SetInternalFieldCount@ObjectTemplate@v8@@QEAAXH@Z 00000001800061f9 f   node:node.exe
 0001:00005205       __imp_load_?NewInstance@ObjectTemplate@v8@@QEAA?AV?$MaybeLocal@VObject@v8@@@2@V?$Local@VContext@v8@@@2@@Z 0000000180006205 f   node:node.exe
 0001:00005211       __imp_load_?New@ObjectTemplate@v8@@SA?AV?$Local@VObjectTemplate@v8@@@2@PEAVIsolate@2@V?$Local@VFunctionTemplate@v8@@@2@@Z 0000000180006211 f   node:node.exe
 0001:0000521d       __imp_load_node_module_register 000000018000621d f   node:node.exe
 0001:00005229       __imp_load_?HasInstance@Buffer@node@@YA_NV?$Local@VValue@v8@@@v8@@@Z 0000000180006229 f   node:node.exe
 0001:00005235       __imp_load_?New@Buffer@node@@YA?AV?$MaybeLocal@VObject@v8@@@v8@@PEAVIsolate@4@PEAD_KP6AX1PEAX@Z3@Z 0000000180006235 f   node:node.exe
 0001:00005241       __imp_load_?Data@Buffer@node@@YAPEADV?$Local@VObject@v8@@@v8@@@Z 0000000180006241 f   node:node.exe
 0001:00005260       __security_check_cookie    0000000180006260 f   LIBCMT:amdsecgs.obj
 0001:00005284       ??2@YAPEAX_K@Z             0000000180006284 f   LIBCMT:new_scalar.obj
 0001:000052c0       ??3@YAXPEAX_K@Z            00000001800062c0 f   LIBCMT:delete_scalar_size.obj
 0001:000055e8       _DllMainCRTStartup         00000001800065e8 f   LIBCMT:dll_dllmain.obj
 0001:00005628       __raise_securityfailure    0000000180006628 f   LIBCMT:gs_report.obj
 0001:0000565c       __report_gsfailure         000000018000665c f   LIBCMT:gs_report.obj
 0001:00005730       __report_rangecheckfailure 0000000180006730 f   LIBCMT:gs_report.obj
 0001:00005744       __report_securityfailure   0000000180006744 f   LIBCMT:gs_report.obj
 0001:000058c4       ??0bad_alloc@std@@QEAA@AEBV01@@Z 00000001800068c4 f i LIBCMT:throw_bad_alloc.obj
 0001:00005900       ??0bad_alloc@std@@QEAA@XZ  0000000180006900 f i LIBCMT:throw_bad_alloc.obj
 0001:00005920       ??0bad_array_new_length@std@@QEAA@AEBV01@@Z 0000000180006920 f i LIBCMT:throw_bad_alloc.obj
 0001:0000595c       ??0bad_array_new_length@std@@QEAA@XZ 000000018000695c f i LIBCMT:throw_bad_alloc.obj
 0001:0000597c       ??0exception@std@@QEAA@AEBV01@@Z 000000018000697c f i LIBCMT:throw_bad_alloc.obj
 0001:000059b0       ??1bad_alloc@std@@UEAA@XZ  00000001800069b0 f i LIBCMT:throw_bad_alloc.obj
 0001:000059b0       ??1bad_array_new_length@std@@UEAA@XZ 00000001800069b0 f i LIBCMT:throw_bad_alloc.obj
 0001:000059c4       ??_Ebad_array_new_length@std@@UEAAPEAXI@Z 00000001800069c4 f i LIBCMT:throw_bad_alloc.obj
 0001:000059c4       ??_Gbad_alloc@std@@UEAAPEAXI@Z 00000001800069c4 f i LIBCMT:throw_bad_alloc.obj
 0001:000059c4       ??_Eexception@std@@UEAAPEAXI@Z 00000001800069c4 f i LIBCMT:throw_bad_alloc.obj
 0001:000059c4       ??_Gexception@std@@UEAAPEAXI@Z 00000001800069c4 f i LIBCMT:throw_bad_alloc.obj
 0001:000059c4       ??_Gbad_array_new_length@std@@UEAAPEAXI@Z 00000001800069c4 f i LIBCMT:throw_bad_alloc.obj
 0001:000059c4       ??_Ebad_alloc@std@@UEAAPEAXI@Z 00000001800069c4 f i LIBCMT:throw_bad_alloc.obj
 0001:00005a08       ?__scrt_throw_std_bad_alloc@@YAXXZ 0000000180006a08 f   LIBCMT:throw_bad_alloc.obj
 0001:00005a28       ?__scrt_throw_std_bad_array_new_length@@YAXXZ 0000000180006a28 f   LIBCMT:throw_bad_alloc.obj
 0001:00005a48       ?what@exception@std@@UEBAPEBDXZ 0000000180006a48 f i LIBCMT:throw_bad_alloc.obj
 0001:00005a5c       ??3@YAXPEAX@Z              0000000180006a5c f   LIBCMT:delete_scalar.obj
 0001:00005a64       __security_init_cookie     0000000180006a64 f   LIBCMT:gs_support.obj
 0001:00005b10       DllMain                    0000000180006b10 f   LIBCMT:dll_dllmain_stub.obj
 0001:00005b10       _get_startup_argv_mode     0000000180006b10 f   LIBCMT:argv_mode.obj
 0001:00005b18       ?__scrt_initialize_type_info@@YAXXZ 0000000180006b18 f   LIBCMT:tncleanup.obj
 0001:00005b28       ?__scrt_uninitialize_type_info@@YAXXZ 0000000180006b28 f   LIBCMT:tncleanup.obj
 0001:00005b34       __local_stdio_scanf_options 0000000180006b34 f i LIBCMT:default_local_stdio_options.obj
 0001:00005b3c       __scrt_initialize_default_local_stdio_options 0000000180006b3c f   LIBCMT:default_local_stdio_options.obj
 0001:00005b58       __scrt_acquire_startup_lock 0000000180006b58 f   LIBCMT:utility.obj
 0001:00005b94       __scrt_dllmain_after_initialize_c 0000000180006b94 f   LIBCMT:utility.obj
 0001:00005bc8       __scrt_dllmain_before_initialize_c 0000000180006bc8 f   LIBCMT:utility.obj
 0001:00005be0       __scrt_dllmain_crt_thread_attach 0000000180006be0 f   LIBCMT:utility.obj
 0001:00005c08       __scrt_dllmain_crt_thread_detach 0000000180006c08 f   LIBCMT:utility.obj
 0001:00005c20       __scrt_dllmain_exception_filter 0000000180006c20 f   LIBCMT:utility.obj
 0001:00005c80       __scrt_dllmain_uninitialize_c 0000000180006c80 f   LIBCMT:utility.obj
 0001:00005cb0       __scrt_dllmain_uninitialize_critical 0000000180006cb0 f   LIBCMT:utility.obj
 0001:00005cc4       __scrt_initialize_crt      0000000180006cc4 f   LIBCMT:utility.obj
 0001:00005d10       __scrt_initialize_onexit_tables 0000000180006d10 f   LIBCMT:utility.obj
 0001:00005d9c       __scrt_is_nonwritable_in_current_image 0000000180006d9c f   LIBCMT:utility.obj
 0001:00005e34       __scrt_release_startup_lock 0000000180006e34 f   LIBCMT:utility.obj
 0001:00005e58       __scrt_uninitialize_crt    0000000180006e58 f   LIBCMT:utility.obj
 0001:00005e84       __scrt_get_dyn_tls_init_callback 0000000180006e84 f   LIBCMT:dyn_tls_init.obj
 0001:00005e8c       __crt_debugger_hook        0000000180006e8c f   LIBCMT:utility_desktop.obj
 0001:00005e94       __scrt_fastfail            0000000180006e94 f   LIBCMT:utility_desktop.obj
 0001:00005fe0       _RTC_Initialize            0000000180006fe0 f   LIBCMT:initsect.obj
 0001:0000601c       _RTC_Terminate             000000018000701c f   LIBCMT:initsect.obj
 0001:00006058       ??_Etype_info@@UEAAPEAXI@Z 0000000180007058 f i LIBCMT:std_type_info_static.obj
 0001:00006058       ??_Gtype_info@@UEAAPEAXI@Z 0000000180007058 f i LIBCMT:std_type_info_static.obj
 0001:00006084       __isa_available_init       0000000180007084 f   LIBCMT:cpu_disp.obj
 0001:00006228       __scrt_is_ucrt_dll_in_use  0000000180007228 f   LIBCMT:ucrt_detection.obj
 0001:00006240       __C_specific_handler       0000000180007240 f   libvcruntime:riscchandler.obj
 0001:0000644c       __std_exception_copy       000000018000744c f   libvcruntime:std_exception.obj
 0001:000064dc       __std_exception_destroy    00000001800074dc f   libvcruntime:std_exception.obj
 0001:00006504       _CxxThrowException         0000000180007504 f   libvcruntime:throw.obj
 0001:000065a4       __std_type_info_destroy_list 00000001800075a4 f   libvcruntime:std_type_info.obj
 0001:000065d0       __vcrt_initialize          00000001800075d0 f   libvcruntime:initialization.obj
 0001:000065f8       __vcrt_thread_attach       00000001800075f8 f   libvcruntime:initialization.obj
 0001:0000660c       __vcrt_thread_detach       000000018000760c f   libvcruntime:initialization.obj
 0001:00006620       __vcrt_uninitialize        0000000180007620 f   libvcruntime:initialization.obj
 0001:0000663c       __vcrt_uninitialize_critical 000000018000763c f   libvcruntime:initialization.obj
 0001:0000664c       __DestructExceptionObject  000000018000764c f   libvcruntime:ehhelpers.obj
 0001:000066bc       ?_CallMemberFunction0@@YAXQEAX0@Z 00000001800076bc f i libvcruntime:ehhelpers.obj
 0001:000066d0       memset_repmovs             00000001800076d0 f   libvcruntime:memset.obj
 0001:000066f0       memset                     00000001800076f0 f   libvcruntime:memset.obj
 0001:00006890       _NLG_Notify                0000000180007890 f   libvcruntime:notify.obj
 0001:000068b0       __NLG_Dispatch2            00000001800078b0 f   libvcruntime:notify.obj
 0001:000068c0       __NLG_Return2              00000001800078c0 f   libvcruntime:notify.obj
 0001:000068c4       __except_validate_context_record 00000001800078c4 f   libvcruntime:jbcxrval.obj
 0001:000068fc       __vcrt_freefls             00000001800078fc f   libvcruntime:per_thread_data.obj
 0001:0000691c       __vcrt_freeptd             000000018000791c f   libvcruntime:per_thread_data.obj
 0001:0000696c       __vcrt_getptd              000000018000796c f   libvcruntime:per_thread_data.obj
 0001:00006988       __vcrt_getptd_noexit       0000000180007988 f   libvcruntime:per_thread_data.obj
 0001:00006a48       __vcrt_initialize_ptd      0000000180007a48 f   libvcruntime:per_thread_data.obj
 0001:00006a90       __vcrt_uninitialize_ptd    0000000180007a90 f   libvcruntime:per_thread_data.obj
 0001:00006ab4       __vcrt_initialize_locks    0000000180007ab4 f   libvcruntime:locks.obj
 0001:00006ae8       __vcrt_uninitialize_locks  0000000180007ae8 f   libvcruntime:locks.obj
 0001:00006b30       memcpy_repmovs             0000000180007b30 f   libvcruntime:memcpy.obj
 0001:00006b50       memcpy                     0000000180007b50 f   libvcruntime:memcpy.obj
 0001:00006b50       memmove                    0000000180007b50 f   libvcruntime:memcpy.obj
 0001:00007074       __vcrt_FlsAlloc            0000000180008074 f   libvcruntime:winapi_downlevel.obj
 0001:000070bc       __vcrt_FlsFree             00000001800080bc f   libvcruntime:winapi_downlevel.obj
 0001:00007104       __vcrt_FlsGetValue         0000000180008104 f   libvcruntime:winapi_downlevel.obj
 0001:0000714c       __vcrt_FlsSetValue         000000018000814c f   libvcruntime:winapi_downlevel.obj
 0001:000071a0       __vcrt_InitializeCriticalSectionEx 00000001800081a0 f   libvcruntime:winapi_downlevel.obj
 0001:00007220       _CallSettingFrame          0000000180008220 f   libvcruntime:handlers.obj
 0001:00007270       _CallSettingFrame_LookupContinuationIndex 0000000180008270 f   libvcruntime:handlers.obj
 0001:000072a0       _CallSettingFrame_NotifyContinuationAddr 00000001800082a0 f   libvcruntime:handlers.obj
 0001:000072d0       _CallSettingFrameEncoded   00000001800082d0 f   libvcruntime:handlers.obj
 0001:00007318       ??$is_overflow_condition@_K@__crt_strtox@@YA_NI_K@Z 0000000180008318 f i libucrt:strtox.obj
 0001:00007348       ??$parse_integer@KV?$c_string_character_source@D@__crt_strtox@@@__crt_strtox@@YAKQEAU__crt_locale_pointers@@V?$c_string_character_source@D@0@H_N@Z 0000000180008348 f i libucrt:strtox.obj
 0001:00007650       ??$parse_integer@KV?$c_string_character_source@_W@__crt_strtox@@@__crt_strtox@@YAKQEAU__crt_locale_pointers@@V?$c_string_character_source@_W@0@H_N@Z 0000000180008650 f i libucrt:strtox.obj
 0001:00007cf8       ??$parse_integer@_KV?$c_string_character_source@D@__crt_strtox@@@__crt_strtox@@YA_KQEAU__crt_locale_pointers@@V?$c_string_character_source@D@0@H_N@Z 0000000180008cf8 f i libucrt:strtox.obj
 0001:00007fe8       ??0_LocaleUpdate@@QEAA@QEAU__crt_locale_pointers@@@Z 0000000180008fe8 f i libucrt:strtox.obj
 0001:00008084       _ischartype_l              0000000180009084 f i libucrt:strtox.obj
 0001:000080fc       _strtoi64                  00000001800090fc f   libucrt:strtox.obj
 0001:00008128       _strtoui64                 0000000180009128 f   libucrt:strtox.obj
 0001:00008154       strtol                     0000000180009154 f   libucrt:strtox.obj
 0001:00008180       wcstol                     0000000180009180 f   libucrt:strtox.obj
 0001:0000858c       ??$ensure_buffer_is_big_enough@D@formatting_buffer@__crt_stdio_output@@QEAA_N_K@Z 000000018000958c f i libucrt:output.obj
 0001:00008634       ??$ensure_buffer_is_big_enough@_W@formatting_buffer@__crt_stdio_output@@QEAA_N_K@Z 0000000180009634 f i libucrt:output.obj
 0001:000086e0       ??$is_wide_character_specifier@_W@__crt_stdio_output@@YA_N_K_WW4length_modifier@0@@Z 00000001800096e0 f i libucrt:output.obj
 0001:00008720       ??$type_case_integer_parse_into_buffer@I@?$output_processor@DV?$string_output_adapter@D@__crt_stdio_output@@V?$format_validation_base@DV?$string_output_adapter@D@__crt_stdio_output@@@2@@__crt_stdio_output@@AEAAXII_N@Z 0000000180009720 f i libucrt:output.obj
 0001:000087a8       ??$type_case_integer_parse_into_buffer@I@?$output_processor@_WV?$stream_output_adapter@_W@__crt_stdio_output@@V?$standard_base@_WV?$stream_output_adapter@_W@__crt_stdio_output@@@2@@__crt_stdio_output@@AEAAXII_N@Z 00000001800097a8 f i libucrt:output.obj
 0001:000087a8       ??$type_case_integer_parse_into_buffer@I@?$output_processor@_WV?$string_output_adapter@_W@__crt_stdio_output@@V?$standard_base@_WV?$string_output_adapter@_W@__crt_stdio_output@@@2@@__crt_stdio_output@@AEAAXII_N@Z 00000001800097a8 f i libucrt:output.obj
 0001:0000884c       ??$type_case_integer_parse_into_buffer@_K@?$output_processor@DV?$string_output_adapter@D@__crt_stdio_output@@V?$format_validation_base@DV?$string_output_adapter@D@__crt_stdio_output@@@2@@__crt_stdio_output@@AEAAX_KI_N@Z 000000018000984c f i libucrt:output.obj
 0001:000088dc       ??$type_case_integer_parse_into_buffer@_K@?$output_processor@_WV?$stream_output_adapter@_W@__crt_stdio_output@@V?$standard_base@_WV?$stream_output_adapter@_W@__crt_stdio_output@@@2@@__crt_stdio_output@@AEAAX_KI_N@Z 00000001800098dc f i libucrt:output.obj
 0001:000088dc       ??$type_case_integer_parse_into_buffer@_K@?$output_processor@_WV?$string_output_adapter@_W@__crt_stdio_output@@V?$standard_base@_WV?$string_output_adapter@_W@__crt_stdio_output@@@2@@__crt_stdio_output@@AEAAX_KI_N@Z 00000001800098dc f i libucrt:output.obj
 0001:00008980       ??$write_multiple_characters@V?$stream_output_adapter@_W@__crt_stdio_output@@D@__crt_stdio_output@@YAXAEBV?$stream_output_adapter@_W@0@DHQEAH@Z 0000000180009980 f i libucrt:output.obj
 0001:00008a14       ??$write_multiple_characters@V?$string_output_adapter@D@__crt_stdio_output@@D@__crt_stdio_output@@YAXAEBV?$string_output_adapter@D@0@DHQEAH@Z 0000000180009a14 f i libucrt:output.obj
 0001:00008a8c       ??$write_multiple_characters@V?$string_output_adapter@_W@__crt_stdio_output@@D@__crt_stdio_output@@YAXAEBV?$string_output_adapter@_W@0@DHQEAH@Z 0000000180009a8c f i libucrt:output.obj
 0001:00008c3c       ?crop_zeroes@__crt_stdio_output@@YAXPEADQEAU__crt_locale_pointers@@@Z 0000000180009c3c f i libucrt:output.obj
 0001:00008ca8       ?parse_int_from_format_string@?$output_processor@DV?$string_output_adapter@D@__crt_stdio_output@@V?$format_validation_base@DV?$string_output_adapter@D@__crt_stdio_output@@@2@@__crt_stdio_output@@AEAA_NQEAH@Z 0000000180009ca8 f i libucrt:output.obj
 0001:00008d4c       ?parse_int_from_format_string@?$output_processor@_WV?$string_output_adapter@_W@__crt_stdio_output@@V?$standard_base@_WV?$string_output_adapter@_W@__crt_stdio_output@@@2@@__crt_stdio_output@@AEAA_NQEAH@Z 0000000180009d4c f i libucrt:output.obj
 0001:00008d4c       ?parse_int_from_format_string@?$output_processor@_WV?$stream_output_adapter@_W@__crt_stdio_output@@V?$standard_base@_WV?$stream_output_adapter@_W@__crt_stdio_output@@@2@@__crt_stdio_output@@AEAA_NQEAH@Z 0000000180009d4c f i libucrt:output.obj
 0001:00008df0       ?process@?$output_processor@DV?$string_output_adapter@D@__crt_stdio_output@@V?$format_validation_base@DV?$string_output_adapter@D@__crt_stdio_output@@@2@@__crt_stdio_output@@QEAAHXZ 0000000180009df0 f i libucrt:output.obj
 0001:00009008       ?process@?$output_processor@_WV?$stream_output_adapter@_W@__crt_stdio_output@@V?$standard_base@_WV?$stream_output_adapter@_W@__crt_stdio_output@@@2@@__crt_stdio_output@@QEAAHXZ 000000018000a008 f i libucrt:output.obj
 0001:00009274       ?process@?$output_processor@_WV?$string_output_adapter@_W@__crt_stdio_output@@V?$standard_base@_WV?$string_output_adapter@_W@__crt_stdio_output@@@2@@__crt_stdio_output@@QEAAHXZ 000000018000a274 f i libucrt:output.obj
 0001:000094f0       ?state_case_normal@?$output_processor@DV?$string_output_adapter@D@__crt_stdio_output@@V?$format_validation_base@DV?$string_output_adapter@D@__crt_stdio_output@@@2@@__crt_stdio_output@@AEAA_NXZ 000000018000a4f0 f i libucrt:output.obj
 0001:00009564       ?state_case_normal_tchar@?$output_processor@DV?$string_output_adapter@D@__crt_stdio_output@@V?$format_validation_base@DV?$string_output_adapter@D@__crt_stdio_output@@@2@@__crt_stdio_output@@AEAA_ND@Z 000000018000a564 f i libucrt:output.obj
 0001:0000960c       ?state_case_size@?$output_processor@DV?$string_output_adapter@D@__crt_stdio_output@@V?$format_validation_base@DV?$string_output_adapter@D@__crt_stdio_output@@@2@@__crt_stdio_output@@AEAA_NXZ 000000018000a60c f i libucrt:output.obj
 0001:00009780       ?state_case_size@?$output_processor@_WV?$stream_output_adapter@_W@__crt_stdio_output@@V?$standard_base@_WV?$stream_output_adapter@_W@__crt_stdio_output@@@2@@__crt_stdio_output@@AEAA_NXZ 000000018000a780 f i libucrt:output.obj
 0001:00009918       ?state_case_size@?$output_processor@_WV?$string_output_adapter@_W@__crt_stdio_output@@V?$standard_base@_WV?$string_output_adapter@_W@__crt_stdio_output@@@2@@__crt_stdio_output@@AEAA_NXZ 000000018000a918 f i libucrt:output.obj
 0001:00009ab0       ?state_case_type@?$output_processor@DV?$string_output_adapter@D@__crt_stdio_output@@V?$format_validation_base@DV?$string_output_adapter@D@__crt_stdio_output@@@2@@__crt_stdio_output@@AEAA_NXZ 000000018000aab0 f i libucrt:output.obj
 0001:00009d18       ?state_case_type@?$output_processor@_WV?$stream_output_adapter@_W@__crt_stdio_output@@V?$standard_base@_WV?$stream_output_adapter@_W@__crt_stdio_output@@@2@@__crt_stdio_output@@AEAA_NXZ 000000018000ad18 f i libucrt:output.obj
 0001:00009ff8       ?state_case_type@?$output_processor@_WV?$string_output_adapter@_W@__crt_stdio_output@@V?$standard_base@_WV?$string_output_adapter@_W@__crt_stdio_output@@@2@@__crt_stdio_output@@AEAA_NXZ 000000018000aff8 f i libucrt:output.obj
 0001:0000a2c4       ?type_case_Z@?$output_processor@DV?$string_output_adapter@D@__crt_stdio_output@@V?$format_validation_base@DV?$string_output_adapter@D@__crt_stdio_output@@@2@@__crt_stdio_output@@AEAA_NXZ 000000018000b2c4 f i libucrt:output.obj
 0001:0000a338       ?type_case_Z@?$output_processor@_WV?$string_output_adapter@_W@__crt_stdio_output@@V?$standard_base@_WV?$string_output_adapter@_W@__crt_stdio_output@@@2@@__crt_stdio_output@@AEAA_NXZ 000000018000b338 f i libucrt:output.obj
 0001:0000a338       ?type_case_Z@?$output_processor@_WV?$stream_output_adapter@_W@__crt_stdio_output@@V?$standard_base@_WV?$stream_output_adapter@_W@__crt_stdio_output@@@2@@__crt_stdio_output@@AEAA_NXZ 000000018000b338 f i libucrt:output.obj
 0001:0000a3b4       ?type_case_a@?$output_processor@DV?$string_output_adapter@D@__crt_stdio_output@@V?$format_validation_base@DV?$string_output_adapter@D@__crt_stdio_output@@@2@@__crt_stdio_output@@AEAA_NXZ 000000018000b3b4 f i libucrt:output.obj
 0001:0000a5cc       ?type_case_a@?$output_processor@_WV?$stream_output_adapter@_W@__crt_stdio_output@@V?$standard_base@_WV?$stream_output_adapter@_W@__crt_stdio_output@@@2@@__crt_stdio_output@@AEAA_NXZ 000000018000b5cc f i libucrt:output.obj
 0001:0000a5cc       ?type_case_a@?$output_processor@_WV?$string_output_adapter@_W@__crt_stdio_output@@V?$standard_base@_WV?$string_output_adapter@_W@__crt_stdio_output@@@2@@__crt_stdio_output@@AEAA_NXZ 000000018000b5cc f i libucrt:output.obj
 0001:0000a808       ?type_case_c_tchar@?$output_processor@DV?$string_output_adapter@D@__crt_stdio_output@@V?$format_validation_base@DV?$string_output_adapter@D@__crt_stdio_output@@@2@@__crt_stdio_output@@AEAA_ND@Z 000000018000b808 f i libucrt:output.obj
 0001:0000a8c4       ?type_case_c_tchar@?$output_processor@_WV?$stream_output_adapter@_W@__crt_stdio_output@@V?$standard_base@_WV?$stream_output_adapter@_W@__crt_stdio_output@@@2@@__crt_stdio_output@@AEAA_N_W@Z 000000018000b8c4 f i libucrt:output.obj
 0001:0000a8c4       ?type_case_c_tchar@?$output_processor@_WV?$string_output_adapter@_W@__crt_stdio_output@@V?$standard_base@_WV?$string_output_adapter@_W@__crt_stdio_output@@@2@@__crt_stdio_output@@AEAA_N_W@Z 000000018000b8c4 f i libucrt:output.obj
 0001:0000a96c       ?type_case_integer@?$output_processor@DV?$string_output_adapter@D@__crt_stdio_output@@V?$format_validation_base@DV?$string_output_adapter@D@__crt_stdio_output@@@2@@__crt_stdio_output@@AEAA_NI_N@Z 000000018000b96c f i libucrt:output.obj
 0001:0000ab34       ?type_case_integer@?$output_processor@_WV?$string_output_adapter@_W@__crt_stdio_output@@V?$standard_base@_WV?$string_output_adapter@_W@__crt_stdio_output@@@2@@__crt_stdio_output@@AEAA_NI_N@Z 000000018000bb34 f i libucrt:output.obj
 0001:0000ab34       ?type_case_integer@?$output_processor@_WV?$stream_output_adapter@_W@__crt_stdio_output@@V?$standard_base@_WV?$stream_output_adapter@_W@__crt_stdio_output@@@2@@__crt_stdio_output@@AEAA_NI_N@Z 000000018000bb34 f i libucrt:output.obj
 0001:0000ad00       ?type_case_n@?$output_processor@DV?$string_output_adapter@D@__crt_stdio_output@@V?$format_validation_base@DV?$string_output_adapter@D@__crt_stdio_output@@@2@@__crt_stdio_output@@AEAA_NXZ 000000018000bd00 f i libucrt:output.obj
 0001:0000ad00       ?type_case_n@?$output_processor@_WV?$stream_output_adapter@_W@__crt_stdio_output@@V?$standard_base@_WV?$stream_output_adapter@_W@__crt_stdio_output@@@2@@__crt_stdio_output@@AEAA_NXZ 000000018000bd00 f i libucrt:output.obj
 0001:0000ad00       ?type_case_n@?$output_processor@_WV?$string_output_adapter@_W@__crt_stdio_output@@V?$standard_base@_WV?$string_output_adapter@_W@__crt_stdio_output@@@2@@__crt_stdio_output@@AEAA_NXZ 000000018000bd00 f i libucrt:output.obj
 0001:0000addc       ?type_case_s@?$output_processor@DV?$string_output_adapter@D@__crt_stdio_output@@V?$format_validation_base@DV?$string_output_adapter@D@__crt_stdio_output@@@2@@__crt_stdio_output@@AEAA_NXZ 000000018000bddc f i libucrt:output.obj
 0001:0000ae74       ?type_case_s@?$output_processor@_WV?$stream_output_adapter@_W@__crt_stdio_output@@V?$standard_base@_WV?$stream_output_adapter@_W@__crt_stdio_output@@@2@@__crt_stdio_output@@AEAA_NXZ 000000018000be74 f i libucrt:output.obj
 0001:0000ae74       ?type_case_s@?$output_processor@_WV?$string_output_adapter@_W@__crt_stdio_output@@V?$standard_base@_WV?$string_output_adapter@_W@__crt_stdio_output@@@2@@__crt_stdio_output@@AEAA_NXZ 000000018000be74 f i libucrt:output.obj
 0001:0000af3c       ?write_stored_string_tchar@?$output_processor@DV?$string_output_adapter@D@__crt_stdio_output@@V?$format_validation_base@DV?$string_output_adapter@D@__crt_stdio_output@@@2@@__crt_stdio_output@@AEAA_ND@Z 000000018000bf3c f i libucrt:output.obj
 0001:0000b014       ?write_stored_string_tchar@?$output_processor@_WV?$stream_output_adapter@_W@__crt_stdio_output@@V?$standard_base@_WV?$stream_output_adapter@_W@__crt_stdio_output@@@2@@__crt_stdio_output@@AEAA_N_W@Z 000000018000c014 f i libucrt:output.obj
 0001:0000b11c       ?write_stored_string_tchar@?$output_processor@_WV?$string_output_adapter@_W@__crt_stdio_output@@V?$standard_base@_WV?$string_output_adapter@_W@__crt_stdio_output@@@2@@__crt_stdio_output@@AEAA_N_W@Z 000000018000c11c f i libucrt:output.obj
 0001:0000b208       ?write_string@?$string_output_adapter@D@__crt_stdio_output@@QEBAXQEBDHQEAHAEAV__crt_deferred_errno_cache@@@Z 000000018000c208 f i libucrt:output.obj
 0001:0000b2ac       ?write_string@?$string_output_adapter@_W@__crt_stdio_output@@QEBAXQEB_WHQEAHAEAV__crt_deferred_errno_cache@@@Z 000000018000c2ac f i libucrt:output.obj
 0001:0000b354       ?write_string_impl@?$output_adapter_common@_WV?$stream_output_adapter@_W@__crt_stdio_output@@@__crt_stdio_output@@IEBAXQEB_WHQEAHAEAV__crt_deferred_errno_cache@@@Z 000000018000c354 f i libucrt:output.obj
 0001:0000b458       __stdio_common_vfwprintf   000000018000c458 f   libucrt:output.obj
 0001:0000b4e4       __stdio_common_vsnprintf_s 000000018000c4e4 f   libucrt:output.obj
 0001:0000b618       __stdio_common_vswprintf   000000018000c618 f   libucrt:output.obj
 0001:0000b620       __acrt_errno_from_os_error 000000018000c620 f   libucrt:errno.obj
 0001:0000b668       __acrt_errno_map_os_error  000000018000c668 f   libucrt:errno.obj
 0001:0000b6b8       __doserrno                 000000018000c6b8 f   libucrt:errno.obj
 0001:0000b6d8       _errno                     000000018000c6d8 f   libucrt:errno.obj
 0001:0000be10       ??$ftprintf@PEAU_iobuf@@PEB_WAEBQEB_WAEBQEB_WAEBI@?$__crt_char_traits@_W@@SAH$$QEAPEAU_iobuf@@$$QEAPEB_WAEBQEB_W2AEBI@Z 000000018000ce10 f i libucrt:assert.obj
 0001:0000be38       _wassert                   000000018000ce38 f   libucrt:assert.obj
 0001:0000beac       fwprintf                   000000018000ceac f i libucrt:assert.obj
 0001:0000bef0       swprintf                   000000018000cef0 f i libucrt:assert.obj
 0001:0000bf44       strerror                   000000018000cf44 f   libucrt:strerror.obj
 0001:0000bfec       __ascii_stricmp            000000018000cfec f   libucrt:stricmp.obj
 0001:0000c028       _stricmp                   000000018000d028 f   libucrt:stricmp.obj
 0001:0000c070       _stricmp_l                 000000018000d070 f   libucrt:stricmp.obj
 0001:0000c0f8       __acrt_initialize_new_handler 000000018000d0f8 f   libucrt:new_handler.obj
 0001:0000c100       _callnewh                  000000018000d100 f   libucrt:new_handler.obj
 0001:0000c130       _query_new_handler         000000018000d130 f   libucrt:new_handler.obj
 0001:0000c164       malloc                     000000018000d164 f   libucrt:malloc.obj
 0001:0000c16c       _initterm                  000000018000d16c f   libucrt:initterm.obj
 0001:0000c1d0       _initterm_e                000000018000d1d0 f   libucrt:initterm.obj
 0001:0000c210       free                       000000018000d210 f   libucrt:free.obj
 0001:0000c224       _seh_filter_dll            000000018000d224 f   libucrt:exception_filter.obj
 0001:0000c238       _seh_filter_exe            000000018000d238 f   libucrt:exception_filter.obj
 0001:0000c628       __acrt_initialize_thread_local_exit_callback 000000018000d628 f   libucrt:exit.obj
 0001:0000c630       _cexit                     000000018000d630 f   libucrt:exit.obj
 0001:0000c640       _exit                      000000018000d640 f   libucrt:exit.obj
 0001:0000c64c       _is_c_termination_complete 000000018000d64c f   libucrt:exit.obj
 0001:0000c818       __acrt_allocate_buffer_for_argv 000000018000d818 f   libucrt:argv_parsing.obj
 0001:0000c878       _configure_narrow_argv     000000018000d878 f   libucrt:argv_parsing.obj
 0001:0000cbf0       __dcrt_uninitialize_environments_nolock 000000018000dbf0 f   libucrt:environment_initialization.obj
 0001:0000cc28       _initialize_narrow_environment 000000018000dc28 f   libucrt:environment_initialization.obj
 0001:0000cd84       _execute_onexit_table      000000018000dd84 f   libucrt:onexit.obj
 0001:0000cdc0       _initialize_onexit_table   000000018000ddc0 f   libucrt:onexit.obj
 0001:0000ce20       __acrt_uninitialize_command_line 000000018000de20 f   libucrt:argv_data.obj
 0001:0000cf18       __acrt_initialize          000000018000df18 f   libucrt:initialization.obj
 0001:0000cf2c       __acrt_thread_attach       000000018000df2c f   libucrt:initialization.obj
 0001:0000cf40       __acrt_thread_detach       000000018000df40 f   libucrt:initialization.obj
 0001:0000cf50       __acrt_uninitialize        000000018000df50 f   libucrt:initialization.obj
 0001:0000cf88       __acrt_uninitialize_critical 000000018000df88 f   libucrt:initialization.obj
 0001:0000cf98       terminate                  000000018000df98 f   libucrt:terminate.obj
 0001:0000cfb8       strcpy_s                   000000018000dfb8 f   libucrt:strcpy_s.obj
 0001:0000d018       abort                      000000018000e018 f   libucrt:abort.obj
 0001:0000d080       strncmp                    000000018000e080 f   libucrt:strncmp.obj
 0001:0000d100       calloc                     000000018000e100 f   libucrt:calloc.obj
 0001:0000d108       wcsncmp                    000000018000e108 f   libucrt:wcsncmp.obj
 0001:0000d134       __acrt_call_reportfault    000000018000e134 f   libucrt:invalid_parameter.obj
 0001:0000d290       __acrt_initialize_invalid_parameter_handler 000000018000e290 f   libucrt:invalid_parameter.obj
 0001:0000d298       _invalid_parameter         000000018000e298 f   libucrt:invalid_parameter.obj
 0001:0000d348       _invalid_parameter_noinfo  000000018000e348 f   libucrt:invalid_parameter.obj
 0001:0000d368       _invoke_watson             000000018000e368 f   libucrt:invalid_parameter.obj
 0001:0000d3b0       __pctype_func              000000018000e3b0 f   libucrt:ctype.obj
 0001:0000d3e0       iswctype                   000000018000e3e0 f   libucrt:iswctype.obj
 0001:0000d450       _isctype_l                 000000018000e450 f   libucrt:isctype.obj
 0001:0000d8d0       __acrt_freeptd             000000018000e8d0 f   libucrt:per_thread_data.obj
 0001:0000d914       __acrt_getptd              000000018000e914 f   libucrt:per_thread_data.obj
 0001:0000d9e8       __acrt_getptd_head         000000018000e9e8 f   libucrt:per_thread_data.obj
 0001:0000da90       __acrt_getptd_noexit       000000018000ea90 f   libucrt:per_thread_data.obj
 0001:0000db5c       __acrt_initialize_ptd      000000018000eb5c f   libucrt:per_thread_data.obj
 0001:0000db98       __acrt_uninitialize_ptd    000000018000eb98 f   libucrt:per_thread_data.obj
 0001:0000dbbc       __acrt_update_locale_info  000000018000ebbc f   libucrt:locale_update.obj
 0001:0000dbf0       __acrt_update_multibyte_info 000000018000ebf0 f   libucrt:locale_update.obj
 0001:0000dc94       __acrt_set_locale_changed  000000018000ec94 f   libucrt:wsetlocale.obj
 0001:0000dca0       __acrt_uninitialize_locale 000000018000eca0 f   libucrt:wsetlocale.obj
 0001:0000dcd0       _free_base                 000000018000ecd0 f   libucrt:free_base.obj
 0001:0000dd10       _malloc_base               000000018000ed10 f   libucrt:malloc_base.obj
 0001:0000dd70       _mbtowc_l                  000000018000ed70 f   libucrt:mbtowc.obj
 0001:0000def0       mbtowc                     000000018000eef0 f   libucrt:mbtowc.obj
 0001:0000def8       _wctomb_s_l                000000018000eef8 f   libucrt:wctomb.obj
 0001:0000e094       wctomb_s                   000000018000f094 f   libucrt:wctomb.obj
 0001:0000e0a8       strnlen                    000000018000f0a8 f   libucrt:strnlen.obj
 0001:0000e1f8       wcsnlen                    000000018000f1f8 f   libucrt:strnlen.obj
 0001:0000ec68       __acrt_fp_format           000000018000fc68 f   libucrt:cvt.obj
 0001:0000ef6c       _fputwc_nolock             000000018000ff6c f   libucrt:fputwc.obj
 0001:0000f0e8       _fileno                    00000001800100e8 f   libucrt:fileno.obj
 0001:0000f110       __acrt_initialize_stdio    0000000180010110 f   libucrt:_file.obj
 0001:0000f230       __acrt_iob_func            0000000180010230 f   libucrt:_file.obj
 0001:0000f244       __acrt_uninitialize_stdio  0000000180010244 f   libucrt:_file.obj
 0001:0000f2a0       _lock_file                 00000001800102a0 f   libucrt:_file.obj
 0001:0000f2ac       _unlock_file               00000001800102ac f   libucrt:_file.obj
 0001:0000f2b8       _fputc_nolock              00000001800102b8 f   libucrt:fputc.obj
 0001:0000f2d0       _get_printf_count_output   00000001800102d0 f   libucrt:printf_count_output.obj
 0001:0000f2e8       __acrt_stdio_begin_temporary_buffering_nolock 00000001800102e8 f   libucrt:_sftbuf.obj
 0001:0000f3b8       __acrt_stdio_end_temporary_buffering_nolock 00000001800103b8 f   libucrt:_sftbuf.obj
 0001:0000f5f0       __acrt_initialize_lowio    00000001800105f0 f   libucrt:ioinit.obj
 0001:0000f62c       __acrt_uninitialize_lowio  000000018001062c f   libucrt:ioinit.obj
 0001:0000f66c       _query_app_type            000000018001066c f   libucrt:report_runtime_error.obj
 0001:0000f7b4       _itow_s                    00000001800107b4 f   libucrt:xtoa.obj
 0001:0000f7d4       _set_error_mode            00000001800107d4 f   libucrt:set_error_mode.obj
 0001:0000f814       wcscat_s                   0000000180010814 f   libucrt:wcscat_s.obj
 0001:0000f894       wcscpy_s                   0000000180010894 f   libucrt:wcscpy_s.obj
 0001:0000f8fc       wcsncat_s                  00000001800108fc f   libucrt:wcsncat_s.obj
 0001:0000f9fc       ??$__acrt_wcs_to_mbs_cp@U__crt_win32_buffer_no_resizing@@@@YAHQEB_WAEAV?$__crt_win32_buffer@DU__crt_win32_buffer_no_resizing@@@@I@Z 00000001800109fc f i libucrt:getmodulefilenamea.obj
 0001:0000fb10       __acrt_GetModuleFileNameA  0000000180010b10 f   libucrt:getmodulefilenamea.obj
 0001:0000fc30       __acrt_show_wide_message_box 0000000180010c30 f   libucrt:crtmbox.obj
 0001:0000fef0       __acrt_stdio_flush_nolock  0000000180010ef0 f   libucrt:fflush.obj
 0001:0000ff6c       _fflush_nolock             0000000180010f6c f   libucrt:fflush.obj
 0001:0000ffb8       _flushall                  0000000180010fb8 f   libucrt:fflush.obj
 0001:0000ffc0       fflush                     0000000180010fc0 f   libucrt:fflush.obj
 0001:00010148       setvbuf                    0000000180011148 f   libucrt:setvbuf.obj
 0001:0001022c       __acrt_get_sigabrt_handler 000000018001122c f   libucrt:signal.obj
 0001:0001025c       __acrt_initialize_signal_handlers 000000018001125c f   libucrt:signal.obj
 0001:0001027c       raise                      000000018001127c f   libucrt:signal.obj
 0001:000104e8       _calloc_base               00000001800114e8 f   libucrt:calloc_base.obj
 0001:00010560       __sys_errlist              0000000180011560 f   libucrt:syserr.obj
 0001:00010568       __sys_nerr                 0000000180011568 f   libucrt:syserr.obj
 0001:00010570       strncpy_s                  0000000180011570 f   libucrt:strncpy_s.obj
 0001:00010644       __acrt_initialize_locks    0000000180011644 f   libucrt:locks.obj
 0001:0001068c       __acrt_lock                000000018001168c f   libucrt:locks.obj
 0001:000106a8       __acrt_uninitialize_locks  00000001800116a8 f   libucrt:locks.obj
 0001:000106e0       __acrt_unlock              00000001800116e0 f   libucrt:locks.obj
 0001:000106fc       __acrt_get_developer_information_policy 00000001800116fc f   libucrt:win_policies.obj
 0001:00010750       __acrt_get_process_end_policy 0000000180011750 f   libucrt:win_policies.obj
 0001:0001078c       __acrt_get_windowing_model_policy 000000018001178c f   libucrt:win_policies.obj
 0001:0001080c       ??$__acrt_mbs_to_wcs_cp@U__crt_win32_buffer_internal_dynamic_resizing@@@@YAHQEBDAEAV?$__crt_win32_buffer@_WU__crt_win32_buffer_internal_dynamic_resizing@@@@I@Z 000000018001180c f i libucrt:argv_wildcards.obj
 0001:00010984       ??$__acrt_wcs_to_mbs_cp@U__crt_win32_buffer_internal_dynamic_resizing@@@@YAHQEB_WAEAV?$__crt_win32_buffer@DU__crt_win32_buffer_internal_dynamic_resizing@@@@I@Z 0000000180011984 f i libucrt:argv_wildcards.obj
 0001:000111b4       __acrt_expand_narrow_argv_wildcards 00000001800121b4 f   libucrt:argv_wildcards.obj
 0001:000118e8       __acrt_initialize_multibyte 00000001800128e8 f   libucrt:mbctype.obj
 0001:00011948       __acrt_update_thread_multibyte_data 0000000180012948 f   libucrt:mbctype.obj
 0001:00011964       _setmbcp_nolock            0000000180012964 f   libucrt:mbctype.obj
 0001:00011c98       _ismbblead                 0000000180012c98 f   libucrt:ismbbyte.obj
 0001:00011cac       __acrt_initialize_command_line 0000000180012cac f   libucrt:argv_data.obj
 0001:00011cd4       __acrt_MultiByteToWideChar 0000000180012cd4 f   libucrt:multibytetowidechar.obj
 0001:00011d30       __acrt_WideCharToMultiByte 0000000180012d30 f   libucrt:widechartomultibyte.obj
 0001:00011dc8       __dcrt_get_narrow_environment_from_os 0000000180012dc8 f   libucrt:get_environment_from_os.obj
 0001:00011ecc       _recalloc_base             0000000180012ecc f   libucrt:recalloc.obj
 0001:0001213c       __acrt_AppPolicyGetProcessTerminationMethodInternal 000000018001313c f   libucrt:winapi_thunks.obj
 0001:0001218c       __acrt_AppPolicyGetShowDeveloperDiagnosticInternal 000000018001318c f   libucrt:winapi_thunks.obj
 0001:000121dc       __acrt_AppPolicyGetWindowingModelInternal 00000001800131dc f   libucrt:winapi_thunks.obj
 0001:0001222c       __acrt_AreFileApisANSI     000000018001322c f   libucrt:winapi_thunks.obj
 0001:00012268       __acrt_FlsAlloc            0000000180013268 f   libucrt:winapi_thunks.obj
 0001:000122b0       __acrt_FlsFree             00000001800132b0 f   libucrt:winapi_thunks.obj
 0001:000122f8       __acrt_FlsGetValue         00000001800132f8 f   libucrt:winapi_thunks.obj
 0001:00012340       __acrt_FlsSetValue         0000000180013340 f   libucrt:winapi_thunks.obj
 0001:00012394       __acrt_InitializeCriticalSectionEx 0000000180013394 f   libucrt:winapi_thunks.obj
 0001:000123f8       __acrt_LCMapStringEx       00000001800133f8 f   libucrt:winapi_thunks.obj
 0001:000124d4       __acrt_LocaleNameToLCID    00000001800134d4 f   libucrt:winapi_thunks.obj
 0001:00012524       __acrt_MessageBoxW         0000000180013524 f   libucrt:winapi_thunks.obj
 0001:00012598       __acrt_can_show_message_box 0000000180013598 f   libucrt:winapi_thunks.obj
 0001:00012608       __acrt_get_parent_window   0000000180013608 f   libucrt:winapi_thunks.obj
 0001:00012680       __acrt_initialize_winapi_thunks 0000000180013680 f   libucrt:winapi_thunks.obj
 0001:000126b4       __acrt_is_interactive      00000001800136b4 f   libucrt:winapi_thunks.obj
 0001:0001277c       __acrt_uninitialize_winapi_thunks 000000018001377c f   libucrt:winapi_thunks.obj
 0001:000127c0       __acrt_initialize_heap     00000001800137c0 f   libucrt:heap_handle.obj
 0001:000127dc       __acrt_uninitialize_heap   00000001800137dc f   libucrt:heap_handle.obj
 0001:000127e8       __acrt_execute_initializers 00000001800137e8 f   libucrt:shared_initialization.obj
 0001:00012868       __acrt_execute_uninitializers 0000000180013868 f   libucrt:shared_initialization.obj
 0001:000128a4       __acrt_has_user_matherr    00000001800138a4 f   libucrt:matherr.obj
 0001:000128c4       __acrt_initialize_user_matherr 00000001800138c4 f   libucrt:matherr.obj
 0001:000128cc       __acrt_invoke_user_matherr 00000001800138cc f   libucrt:matherr.obj
 0001:000128fc       __acrt_GetStringTypeW      00000001800138fc f   libucrt:getstringtypew.obj
 0001:00012904       __acrt_GetStringTypeA      0000000180013904 f   libucrt:getstringtypea.obj
 0001:00012a94       __acrt_add_locale_ref      0000000180013a94 f   libucrt:locale_refcounting.obj
 0001:00012b20       __acrt_free_locale         0000000180013b20 f   libucrt:locale_refcounting.obj
 0001:00012c98       __acrt_locale_add_lc_time_reference 0000000180013c98 f   libucrt:locale_refcounting.obj
 0001:00012cc0       __acrt_locale_free_lc_time_if_unreferenced 0000000180013cc0 f   libucrt:locale_refcounting.obj
 0001:00012cf8       __acrt_locale_release_lc_time_reference 0000000180013cf8 f   libucrt:locale_refcounting.obj
 0001:00012d20       __acrt_release_locale_ref  0000000180013d20 f   libucrt:locale_refcounting.obj
 0001:00012dc8       __acrt_update_thread_locale_data 0000000180013dc8 f   libucrt:locale_refcounting.obj
 0001:00012e34       _updatetlocinfoEx_nolock   0000000180013e34 f   libucrt:locale_refcounting.obj
 0001:00012e9c       __acrt_locale_free_monetary 0000000180013e9c f   libucrt:initmon.obj
 0001:00012fa8       __acrt_locale_free_numeric 0000000180013fa8 f   libucrt:initnum.obj
 0001:0001306c       __acrt_locale_free_time    000000018001406c f   libucrt:inittime.obj
 0001:00013174       _query_new_mode            0000000180014174 f   libucrt:new_mode.obj
 0001:0001317c       _isleadbyte_l              000000018001417c f i libucrt:_wctype.obj
 0001:000131c8       ?__mbrtowc_utf8@__crt_mbstring@@YA_KPEA_WPEBD_KPEAU_Mbstatet@@@Z 00000001800141c8 f   libucrt:mbrtowc.obj
 0001:00013204       ?__mbsrtowcs_utf8@__crt_mbstring@@YA_KPEA_WPEAPEBD_KPEAU_Mbstatet@@@Z 0000000180014204 f   libucrt:mbrtowc.obj
 0001:0001337c       ?__c32rtomb_utf8@__crt_mbstring@@YA_KPEAD_UPEAU_Mbstatet@@@Z 000000018001437c f   libucrt:c32rtomb.obj
 0001:00013430       __acrt_fp_strflt_to_string 0000000180014430 f   libucrt:_fptostr.obj
 0001:00013520       ?divide@__crt_strtox@@YA_KAEAUbig_integer@1@AEBU21@@Z 0000000180014520 f i libucrt:cfout.obj
 0001:0001394c       __acrt_fltout              000000018001494c f   libucrt:cfout.obj
 0001:00014e50       __acrt_stdio_flush_and_write_narrow_nolock 0000000180015e50 f   libucrt:_flsbuf.obj
 0001:00014f3c       __acrt_stdio_flush_and_write_wide_nolock 0000000180015f3c f   libucrt:_flsbuf.obj
 0001:00015028       _fcloseall                 0000000180016028 f   libucrt:closeall.obj
 0001:000150dc       __acrt_stdio_free_buffer_nolock 00000001800160dc f   libucrt:_freebuf.obj
 0001:0001511c       _isatty                    000000018001611c f   libucrt:isatty.obj
 0001:0001517c       __acrt_lowio_create_handle_array 000000018001617c f   libucrt:osfinfo.obj
 0001:00015224       __acrt_lowio_destroy_handle_array 0000000180016224 f   libucrt:osfinfo.obj
 0001:00015274       __acrt_lowio_ensure_fh_exists 0000000180016274 f   libucrt:osfinfo.obj
 0001:0001531c       __acrt_lowio_lock_fh       000000018001631c f   libucrt:osfinfo.obj
 0001:00015344       __acrt_lowio_unlock_fh     0000000180016344 f   libucrt:osfinfo.obj
 0001:0001536c       _free_osfhnd               000000018001636c f   libucrt:osfinfo.obj
 0001:00015428       _get_osfhandle             0000000180016428 f   libucrt:osfinfo.obj
 0001:0001552c       _commit                    000000018001652c f   libucrt:commit.obj
 0001:00015e20       _write                     0000000180016e20 f   libucrt:write.obj
 0001:00015f0c       _write_nolock              0000000180016f0c f   libucrt:write.obj
 0001:000161f0       qsort                      00000001800171f0 f   libucrt:qsort.obj
 0001:00016640       strpbrk                    0000000180017640 f   libucrt:strpbrk.obj
 0001:00016a20       _mbsdec                    0000000180017a20 f   libucrt:mbsdec.obj
 0001:00016a28       _mbsdec_l                  0000000180017a28 f   libucrt:mbsdec.obj
 0001:00016dd4       __acrt_LCMapStringA        0000000180017dd4 f   libucrt:lcmapstringa.obj
 0001:00016e84       _msize_base                0000000180017e84 f   libucrt:msize.obj
 0001:00016ec0       _realloc_base              0000000180017ec0 f   libucrt:realloc_base.obj
 0001:00016f3c       __acrt_DownlevelLocaleNameToLCID 0000000180017f3c f   libucrt:lcidtoname_downlevel.obj
 0001:00016fec       __ascii_wcsnicmp           0000000180017fec f   libucrt:wcsnicmp.obj
 0001:00017038       ?__mbrtoc32_utf8@__crt_mbstring@@YA_KPEA_UPEBD_KPEAU_Mbstatet@@@Z 0000000180018038 f   libucrt:mbrtoc32.obj
 0001:00017214       fegetenv                   0000000180018214 f   libucrt:fegetenv.obj
 0001:00017234       fesetenv                   0000000180018234 f   libucrt:fesetenv.obj
 0001:00017280       feholdexcept               0000000180018280 f   libucrt:feholdexcept.obj
 0001:000172d0       ceil                       00000001800182d0 f   libucrt:ceil.obj
 0001:000173a0       log10                      00000001800183a0 f   libucrt:log10.obj
 0001:00017ad8       _lseeki64                  0000000180018ad8 f   libucrt:lseek.obj
 0001:00017ae0       _lseeki64_nolock           0000000180018ae0 f   libucrt:lseek.obj
 0001:00017ae8       __acrt_stdio_allocate_buffer_nolock 0000000180018ae8 f   libucrt:_getbuf.obj
 0001:00017b50       _fclose_nolock             0000000180018b50 f   libucrt:fclose.obj
 0001:00017bd4       fclose                     0000000180018bd4 f   libucrt:fclose.obj
 0001:00017c38       _putwch_nolock             0000000180018c38 f   libucrt:putwch.obj
 0001:00017c74       __strncnt                  0000000180018c74 f   libucrt:strncnt.obj
 0001:00017c8c       __acrt_fenv_get_control    0000000180018c8c f   libucrt:_fenvutils.obj
 0001:00017d80       __acrt_fenv_get_status     0000000180018d80 f   libucrt:_fenvutils.obj
 0001:00017dd4       __acrt_fenv_set_control    0000000180018dd4 f   libucrt:_fenvutils.obj
 0001:00017f1c       __acrt_fenv_set_status     0000000180018f1c f   libucrt:_fenvutils.obj
 0001:00017fa0       _clearfp                   0000000180018fa0 f   libucrt:ieee.obj
 0001:00018134       _handle_error              0000000180019134 f   libucrt:libm_error.obj
 0001:0001825c       _handle_nan                000000018001925c f   libucrt:libm_error.obj
 0001:00018280       __acrt_initialize_fma3     0000000180019280 f   libucrt:fma3_available.obj
 0001:000182f0       _log10_special             00000001800192f0 f   libucrt:log_special.obj
 0001:0001841c       _close                     000000018001941c f   libucrt:close.obj
 0001:000184c0       _close_nolock              00000001800194c0 f   libucrt:close.obj
 0001:00018580       ?__acrt_stdio_free_stream@@YAXV__crt_stdio_stream@@@Z 0000000180019580 f   libucrt:stream.obj
 0001:0001859c       __dcrt_lowio_ensure_console_output_initialized 000000018001959c f   libucrt:initcon.obj
 0001:000185f0       __dcrt_terminate_console_output 00000001800195f0 f   libucrt:initcon.obj
 0001:0001860c       __dcrt_write_console       000000018001960c f   libucrt:initcon.obj
 0001:000186e0       _get_fpsr                  00000001800196e0 f   libucrt:fpsr.obj
 0001:000186f0       _set_fpsr                  00000001800196f0 f   libucrt:fpsr.obj
 0001:000186fa       _fclrf                     00000001800196fa f   libucrt:fpsr.obj
 0001:0001870e       _frnd                      000000018001970e f   libucrt:fpsr.obj
 0001:00018730       _raise_exc                 0000000180019730 f   libucrt:fpexcept.obj
 0001:00018758       _raise_exc_ex              0000000180019758 f   libucrt:fpexcept.obj
 0001:00018a68       _set_errno_from_matherr    0000000180019a68 f   libucrt:fpexcept.obj
 0001:00018a98       _clrfp                     0000000180019a98 f   libucrt:fpctrl.obj
 0001:00018ab8       _ctrlfp                    0000000180019ab8 f   libucrt:fpctrl.obj
 0001:00018b34       _set_statfp                0000000180019b34 f   libucrt:fpctrl.obj
 0001:00018b54       _statfp                    0000000180019b54 f   libucrt:fpctrl.obj
 0001:00018b65       IsProcessorFeaturePresent  0000000180019b65 f   kernel32:KERNEL32.dll
 0001:00018b6c       ?DloadAcquireSectionWriteAccess@@YAXXZ 0000000180019b6c f i DelayImp:delayhlp.obj
 0001:00018c18       ?DloadGetSRWLockFunctionPointers@@YAEXZ 0000000180019c18 f i DelayImp:delayhlp.obj
 0001:00018cb4       ?DloadMakePermanentImageCommit@@YAXPEAX_K@Z 0000000180019cb4 f i DelayImp:delayhlp.obj
 0001:00018d4c       ?DloadObtainSection@@YAPEAXPEAK0@Z 0000000180019d4c f i DelayImp:delayhlp.obj
 0001:00018de8       ?DloadProtectSection@@YAXKPEAK@Z 0000000180019de8 f i DelayImp:delayhlp.obj
 0001:00018e78       ?DloadReleaseSectionWriteAccess@@YAXXZ 0000000180019e78 f i DelayImp:delayhlp.obj
 0001:00018f0c       __delayLoadHelper2         0000000180019f0c f   DelayImp:delayhlp.obj
 0001:000191f0       _FindPESection             000000018001a1f0 f   LIBCMT:pesect.obj
 0001:00019240       _IsNonwritableInCurrentImage 000000018001a240 f   LIBCMT:pesect.obj
 0001:00019290       _ValidateImageBase         000000018001a290 f   LIBCMT:pesect.obj
 0001:000192c0       __GSHandlerCheck           000000018001a2c0 f   LIBCMT:gshandler.obj
 0001:000192e0       __GSHandlerCheckCommon     000000018001a2e0 f   LIBCMT:gshandler.obj
 0001:00019350       _alloca_probe              000000018001a350 f   LIBCMT:chkstk.obj
 0001:00019350       __chkstk                   000000018001a350 f   LIBCMT:chkstk.obj
 0001:000193c0       memcmp                     000000018001a3c0 f   libvcruntime:memcmp.obj
 0001:00019488       strrchr                    000000018001a488 f   libvcruntime:strrchr.obj
 0001:000195d0       _guard_dispatch_icall_nop  000000018001a5d0 f   LIBCMT:guard_dispatch.obj
 0002:00000000       __imp_GetModuleHandleA     000000018001b000     kernel32:KERNEL32.dll
 0002:00000008       __imp_LoadLibraryExA       000000018001b008     kernel32:KERNEL32.dll
 0002:00000010       __imp_RtlCaptureContext    000000018001b010     kernel32:KERNEL32.dll
 0002:00000018       __imp_RtlLookupFunctionEntry 000000018001b018     kernel32:KERNEL32.dll
 0002:00000020       __imp_RtlVirtualUnwind     000000018001b020     kernel32:KERNEL32.dll
 0002:00000028       __imp_UnhandledExceptionFilter 000000018001b028     kernel32:KERNEL32.dll
 0002:00000030       __imp_SetUnhandledExceptionFilter 000000018001b030     kernel32:KERNEL32.dll
 0002:00000038       __imp_GetCurrentProcess    000000018001b038     kernel32:KERNEL32.dll
 0002:00000040       __imp_TerminateProcess     000000018001b040     kernel32:KERNEL32.dll
 0002:00000048       __imp_IsProcessorFeaturePresent 000000018001b048     kernel32:KERNEL32.dll
 0002:00000050       __imp_QueryPerformanceCounter 000000018001b050     kernel32:KERNEL32.dll
 0002:00000058       __imp_GetCurrentProcessId  000000018001b058     kernel32:KERNEL32.dll
 0002:00000060       __imp_GetCurrentThreadId   000000018001b060     kernel32:KERNEL32.dll
 0002:00000068       __imp_GetSystemTimeAsFileTime 000000018001b068     kernel32:KERNEL32.dll
 0002:00000070       __imp_InitializeSListHead  000000018001b070     kernel32:KERNEL32.dll
 0002:00000078       __imp_IsDebuggerPresent    000000018001b078     kernel32:KERNEL32.dll
 0002:00000080       __imp_GetStartupInfoW      000000018001b080     kernel32:KERNEL32.dll
 0002:00000088       __imp_GetModuleHandleW     000000018001b088     kernel32:KERNEL32.dll
 0002:00000090       __imp_RtlUnwindEx          000000018001b090     kernel32:KERNEL32.dll
 0002:00000098       __imp_RtlPcToFileHeader    000000018001b098     kernel32:KERNEL32.dll
 0002:000000a0       __imp_RaiseException       000000018001b0a0     kernel32:KERNEL32.dll
 0002:000000a8       __imp_InterlockedFlushSList 000000018001b0a8     kernel32:KERNEL32.dll
 0002:000000b0       __imp_GetLastError         000000018001b0b0     kernel32:KERNEL32.dll
 0002:000000b8       __imp_SetLastError         000000018001b0b8     kernel32:KERNEL32.dll
 0002:000000c0       __imp_EnterCriticalSection 000000018001b0c0     kernel32:KERNEL32.dll
 0002:000000c8       __imp_LeaveCriticalSection 000000018001b0c8     kernel32:KERNEL32.dll
 0002:000000d0       __imp_DeleteCriticalSection 000000018001b0d0     kernel32:KERNEL32.dll
 0002:000000d8       __imp_InitializeCriticalSectionAndSpinCount 000000018001b0d8     kernel32:KERNEL32.dll
 0002:000000e0       __imp_TlsAlloc             000000018001b0e0     kernel32:KERNEL32.dll
 0002:000000e8       __imp_TlsGetValue          000000018001b0e8     kernel32:KERNEL32.dll
 0002:000000f0       __imp_TlsSetValue          000000018001b0f0     kernel32:KERNEL32.dll
 0002:000000f8       __imp_TlsFree              000000018001b0f8     kernel32:KERNEL32.dll
 0002:00000100       __imp_FreeLibrary          000000018001b100     kernel32:KERNEL32.dll
 0002:00000108       __imp_GetProcAddress       000000018001b108     kernel32:KERNEL32.dll
 0002:00000110       __imp_LoadLibraryExW       000000018001b110     kernel32:KERNEL32.dll
 0002:00000118       __imp_GetStdHandle         000000018001b118     kernel32:KERNEL32.dll
 0002:00000120       __imp_GetFileType          000000018001b120     kernel32:KERNEL32.dll
 0002:00000128       __imp_GetModuleFileNameW   000000018001b128     kernel32:KERNEL32.dll
 0002:00000130       __imp_GetModuleHandleExW   000000018001b130     kernel32:KERNEL32.dll
 0002:00000138       __imp_WriteConsoleW        000000018001b138     kernel32:KERNEL32.dll
 0002:00000140       __imp_ExitProcess          000000018001b140     kernel32:KERNEL32.dll
 0002:00000148       __imp_HeapFree             000000018001b148     kernel32:KERNEL32.dll
 0002:00000150       __imp_HeapAlloc            000000018001b150     kernel32:KERNEL32.dll
 0002:00000158       __imp_WriteFile            000000018001b158     kernel32:KERNEL32.dll
 0002:00000160       __imp_OutputDebugStringW   000000018001b160     kernel32:KERNEL32.dll
 0002:00000168       __imp_FindClose            000000018001b168     kernel32:KERNEL32.dll
 0002:00000170       __imp_FindFirstFileExW     000000018001b170     kernel32:KERNEL32.dll
 0002:00000178       __imp_FindNextFileW        000000018001b178     kernel32:KERNEL32.dll
 0002:00000180       __imp_IsValidCodePage      000000018001b180     kernel32:KERNEL32.dll
 0002:00000188       __imp_GetACP               000000018001b188     kernel32:KERNEL32.dll
 0002:00000190       __imp_GetOEMCP             000000018001b190     kernel32:KERNEL32.dll
 0002:00000198       __imp_GetCPInfo            000000018001b198     kernel32:KERNEL32.dll
 0002:000001a0       __imp_GetCommandLineA      000000018001b1a0     kernel32:KERNEL32.dll
 0002:000001a8       __imp_GetCommandLineW      000000018001b1a8     kernel32:KERNEL32.dll
 0002:000001b0       __imp_MultiByteToWideChar  000000018001b1b0     kernel32:KERNEL32.dll
 0002:000001b8       __imp_WideCharToMultiByte  000000018001b1b8     kernel32:KERNEL32.dll
 0002:000001c0       __imp_GetEnvironmentStringsW 000000018001b1c0     kernel32:KERNEL32.dll
 0002:000001c8       __imp_FreeEnvironmentStringsW 000000018001b1c8     kernel32:KERNEL32.dll
 0002:000001d0       __imp_LCMapStringW         000000018001b1d0     kernel32:KERNEL32.dll
 0002:000001d8       __imp_GetProcessHeap       000000018001b1d8     kernel32:KERNEL32.dll
 0002:000001e0       __imp_GetStringTypeW       000000018001b1e0     kernel32:KERNEL32.dll
 0002:000001e8       __imp_GetFileSizeEx        000000018001b1e8     kernel32:KERNEL32.dll
 0002:000001f0       __imp_SetFilePointerEx     000000018001b1f0     kernel32:KERNEL32.dll
 0002:000001f8       __imp_SetStdHandle         000000018001b1f8     kernel32:KERNEL32.dll
 0002:00000200       __imp_FlushFileBuffers     000000018001b200     kernel32:KERNEL32.dll
 0002:00000208       __imp_GetConsoleCP         000000018001b208     kernel32:KERNEL32.dll
 0002:00000210       __imp_GetConsoleMode       000000018001b210     kernel32:KERNEL32.dll
 0002:00000218       __imp_HeapSize             000000018001b218     kernel32:KERNEL32.dll
 0002:00000220       __imp_HeapReAlloc          000000018001b220     kernel32:KERNEL32.dll
 0002:00000228       __imp_CloseHandle          000000018001b228     kernel32:KERNEL32.dll
 0002:00000230       __imp_CreateFileW          000000018001b230     kernel32:KERNEL32.dll
 0002:00000238       __imp_GetSystemInfo        000000018001b238     kernel32:KERNEL32.dll
 0002:00000240       __imp_VirtualProtect       000000018001b240     kernel32:KERNEL32.dll
 0002:00000248       __imp_VirtualQuery         000000018001b248     kernel32:KERNEL32.dll
 0002:00000250       \177KERNEL32_NULL_THUNK_DATA 000000018001b250     kernel32:KERNEL32.dll
 0002:00000258       __guard_check_icall_fptr   000000018001b258     LIBCMT:guard_support.obj
 0002:00000260       __guard_xfg_check_icall_fptr 000000018001b260     LIBCMT:guard_support.obj
 0002:00000268       __guard_dispatch_icall_fptr 000000018001b268     LIBCMT:guard_support.obj
 0002:00000270       __guard_xfg_dispatch_icall_fptr 000000018001b270     LIBCMT:guard_support.obj
 0002:00000278       __guard_xfg_table_dispatch_icall_fptr 000000018001b278     LIBCMT:guard_support.obj
 0002:00000280       __xc_a                     000000018001b280     LIBCMT:initializers.obj
 0002:00000288       _register_binding_         000000018001b288     binding.obj
 0002:00000290       __xc_z                     000000018001b290     LIBCMT:initializers.obj
 0002:00000298       __xi_a                     000000018001b298     LIBCMT:initializers.obj
 0002:000002a0       __acrt_stdio_initializer   000000018001b2a0     libucrt:stdio_initializer.obj
 0002:000002a8       __acrt_multibyte_initializer 000000018001b2a8     libucrt:multibyte_initializer.obj
 0002:000002b0       __acrt_tran_fma3_initializer 000000018001b2b0     libucrt:fma3_initializer.obj
 0002:000002b8       __xi_z                     000000018001b2b8     LIBCMT:initializers.obj
 0002:000002c0       __xp_a                     000000018001b2c0     LIBCMT:initializers.obj
 0002:000002c8       __acrt_locale_terminator   000000018001b2c8     libucrt:locale_initializer.obj
 0002:000002d0       __dcrt_console_output_terminator 000000018001b2d0     libucrt:console_output_initializer.obj
 0002:000002d8       __acrt_stdio_terminator    000000018001b2d8     libucrt:stdio_initializer.obj
 0002:000002e0       __xp_z                     000000018001b2e0     LIBCMT:initializers.obj
 0002:000002e8       __xt_a                     000000018001b2e8     LIBCMT:initializers.obj
 0002:000002f0       __xt_z                     000000018001b2f0     LIBCMT:initializers.obj
 0002:00000300       __sz_node_exe              000000018001b300     node:node.exe
 0002:00000310       _pRawDllMain               000000018001b310     LIBCMT:dll_dllmain.obj
 0002:00000310       _pDefaultRawDllMain        000000018001b310     LIBCMT:dll_dllmain.obj
 0002:00000330       ??_7exception@std@@6B@     000000018001b330     LIBCMT:throw_bad_alloc.obj
 0002:00000340       ??_C@_0BC@EOODALEL@Unknown?5exception@ 000000018001b340     LIBCMT:throw_bad_alloc.obj
 0002:00000360       ??_7bad_alloc@std@@6B@     000000018001b360     LIBCMT:throw_bad_alloc.obj
 0002:00000370       ??_C@_0P@GHFPNOJB@bad?5allocation@ 000000018001b370     LIBCMT:throw_bad_alloc.obj
 0002:00000388       ??_7bad_array_new_length@std@@6B@ 000000018001b388     LIBCMT:throw_bad_alloc.obj
 0002:00000398       ??_C@_0BF@KINCDENJ@bad?5array?5new?5length@ 000000018001b398     LIBCMT:throw_bad_alloc.obj
 0002:000003b0       __xmm@ffffffffffffffffffffffffffffffff 000000018001b3b0     LIBCMT:utility.obj
 0002:000003c8       ??_7type_info@@6B@         000000018001b3c8     LIBCMT:std_type_info_static.obj
 0002:000003d0       _pDestructExceptionObject  000000018001b3d0     libvcruntime:ehhelpers.obj
 0002:00000ae0       ??_C@_08EHJDFFNH@__based?$CI@ 000000018001bae0     libvcruntime:undname.obj
 0002:00000af0       ??_C@_07KOLFKCDI@__cdecl@  000000018001baf0     libvcruntime:undname.obj
 0002:00000af8       ??_C@_08GHMPAG@__pascal@   000000018001baf8     libvcruntime:undname.obj
 0002:00000b08       ??_C@_09IFJBGAPI@__stdcall@ 000000018001bb08     libvcruntime:undname.obj
 0002:00000b18       ??_C@_0L@NPHFGOKO@__thiscall@ 000000018001bb18     libvcruntime:undname.obj
 0002:00000b28       ??_C@_0L@JMKHOMEK@__fastcall@ 000000018001bb28     libvcruntime:undname.obj
 0002:00000b38       ??_C@_0N@BCKKPABJ@__vectorcall@ 000000018001bb38     libvcruntime:undname.obj
 0002:00000b48       ??_C@_09HIJEGCPM@__clrcall@ 000000018001bb48     libvcruntime:undname.obj
 0002:00000b54       ??_C@_06GHPCKEAG@__eabi@   000000018001bb54     libvcruntime:undname.obj
 0002:00000b60       ??_C@_09IOPIDJLG@__swift_1@ 000000018001bb60     libvcruntime:undname.obj
 0002:00000b70       ??_C@_09KFNFGKHF@__swift_2@ 000000018001bb70     libvcruntime:undname.obj
 0002:00000b80       ??_C@_07JOMMBBKO@__ptr64@  000000018001bb80     libvcruntime:undname.obj
 0002:00000b88       ??_C@_0L@PILCLIHE@__restrict@ 000000018001bb88     libvcruntime:undname.obj
 0002:00000b98       ??_C@_0M@GFIIJFMG@__unaligned@ 000000018001bb98     libvcruntime:undname.obj
 0002:00000ba8       ??_C@_09DHDLOLLB@restrict?$CI@ 000000018001bba8     libvcruntime:undname.obj
 0002:00000bb2       ??_C@_00CNPNBAHC@@         000000018001bbb2     libvcruntime:undname.obj
 0002:00000bb4       ??_C@_04NIHEBCM@?5new@     000000018001bbb4     libvcruntime:undname.obj
 0002:00000bc0       ??_C@_07FPCDHGMM@?5delete@ 000000018001bbc0     libvcruntime:undname.obj
 0002:00000bc8       ??_C@_01NEMOKFLO@?$DN@     000000018001bbc8     libvcruntime:undname.obj
 0002:00000bcc       ??_C@_02GPIOPFAK@?$DO?$DO@ 000000018001bbcc     libvcruntime:undname.obj
 0002:00000bd0       ??_C@_02FODMEDOG@?$DM?$DM@ 000000018001bbd0     libvcruntime:undname.obj
 0002:00000bd4       ??_C@_01DCLJPIOD@?$CB@     000000018001bbd4     libvcruntime:undname.obj
 0002:00000bd8       ??_C@_02EGOFBIJA@?$DN?$DN@ 000000018001bbd8     libvcruntime:undname.obj
 0002:00000bdc       ??_C@_02FDNJECIE@?$CB?$DN@ 000000018001bbdc     libvcruntime:undname.obj
 0002:00000be0       ??_C@_02GPECMEKF@?$FL?$FN@ 000000018001bbe0     libvcruntime:undname.obj
 0002:00000be8       ??_C@_08LHJFAFGD@operator@ 000000018001bbe8     libvcruntime:undname.obj
 0002:00000bf4       ??_C@_02HBOOOICD@?9?$DO@   000000018001bbf4     libvcruntime:undname.obj
 0002:00000bf8       ??_C@_01NBENCBCI@?$CK@     000000018001bbf8     libvcruntime:undname.obj
 0002:00000bfc       ??_C@_02ECNGHCIF@?$CL?$CL@ 000000018001bbfc     libvcruntime:undname.obj
 0002:00000c00       ??_C@_02BAABKJLB@?9?9@     000000018001bc00     libvcruntime:undname.obj
 0002:00000c04       ??_C@_01JOAMLHOP@?9@       000000018001bc04     libvcruntime:undname.obj
 0002:00000c08       ??_C@_01MIFGBAGJ@?$CL@     000000018001bc08     libvcruntime:undname.obj
 0002:00000c0c       ??_C@_01HNPIGOCE@?$CG@     000000018001bc0c     libvcruntime:undname.obj
 0002:00000c10       ??_C@_03MNHNFDLC@?9?$DO?$CK@ 000000018001bc10     libvcruntime:undname.obj
 0002:00000c14       ??_C@_01KMDKNFGN@?1@       000000018001bc14     libvcruntime:undname.obj
 0002:00000c18       ??_C@_01FGNFDNOH@?$CF@     000000018001bc18     libvcruntime:undname.obj
 0002:00000c1c       ??_C@_01MNNFJEPP@?$DM@     000000018001bc1c     libvcruntime:undname.obj
 0002:00000c20       ??_C@_02EHCHHCKH@?$DM?$DN@ 000000018001bc20     libvcruntime:undname.obj
 0002:00000c24       ??_C@_01PPODPGHN@?$DO@     000000018001bc24     libvcruntime:undname.obj
 0002:00000c28       ??_C@_02EEKDKGMJ@?$DO?$DN@ 000000018001bc28     libvcruntime:undname.obj
 0002:00000c2c       ??_C@_01IHBHIGKO@?0@       000000018001bc2c     libvcruntime:undname.obj
 0002:00000c30       ??_C@_02HCKGKOFO@?$CI?$CJ@ 000000018001bc30     libvcruntime:undname.obj
 0002:00000c34       ??_C@_01PJKLJHI@?$HO@      000000018001bc34     libvcruntime:undname.obj
 0002:00000c38       ??_C@_01JKBOJNNK@?$FO@     000000018001bc38     libvcruntime:undname.obj
 0002:00000c3c       ??_C@_01DNKMNLPK@?$HM@     000000018001bc3c     libvcruntime:undname.obj
 0002:00000c40       ??_C@_02PPKAJPJL@?$CG?$CG@ 000000018001bc40     libvcruntime:undname.obj
 0002:00000c44       ??_C@_02NONPIBCD@?$HM?$HM@ 000000018001bc44     libvcruntime:undname.obj
 0002:00000c48       ??_C@_02FPIMKNGF@?$CK?$DN@ 000000018001bc48     libvcruntime:undname.obj
 0002:00000c4c       ??_C@_02FOEOMHFC@?$CL?$DN@ 000000018001bc4c     libvcruntime:undname.obj
 0002:00000c50       ??_C@_02FKMDLLOA@?9?$DN@   000000018001bc50     libvcruntime:undname.obj
 0002:00000c54       ??_C@_02FJEHGPIO@?1?$DN@   000000018001bc54     libvcruntime:undname.obj
 0002:00000c58       ??_C@_02FENAOKFI@?$CF?$DN@ 000000018001bc58     libvcruntime:undname.obj
 0002:00000c5c       ??_C@_03IKFCCPFF@?$DO?$DO?$DN@ 000000018001bc5c     libvcruntime:undname.obj
 0002:00000c60       ??_C@_03CDNPDDLA@?$DM?$DM?$DN@ 000000018001bc60     libvcruntime:undname.obj
 0002:00000c64       ??_C@_02FGJGFEAB@?$CG?$DN@ 000000018001bc64     libvcruntime:undname.obj
 0002:00000c68       ??_C@_02DHLNPPGH@?$HM?$DN@ 000000018001bc68     libvcruntime:undname.obj
 0002:00000c6c       ??_C@_02MHEGNOJ@?$FO?$DN@  000000018001bc6c     libvcruntime:undname.obj
 0002:00000c70       ??_C@_09IFPLHPGF@?$GAvftable?8@ 000000018001bc70     libvcruntime:undname.obj
 0002:00000c80       ??_C@_09BLBHBJP@?$GAvbtable?8@ 000000018001bc80     libvcruntime:undname.obj
 0002:00000c90       ??_C@_07FEEIOKP@?$GAvcall?8@ 000000018001bc90     libvcruntime:undname.obj
 0002:00000c98       ??_C@_08LLFFHHDJ@?$GAtypeof?8@ 000000018001bc98     libvcruntime:undname.obj
 0002:00000ca8       ??_C@_0BF@KDPPACIK@?$GAlocal?5static?5guard?8@ 000000018001bca8     libvcruntime:undname.obj
 0002:00000cc0       ??_C@_08OBABFOLI@?$GAstring?8@ 000000018001bcc0     libvcruntime:undname.obj
 0002:00000cd0       ??_C@_0BD@JDLKDPAB@?$GAvbase?5destructor?8@ 000000018001bcd0     libvcruntime:undname.obj
 0002:00000ce8       ??_C@_0BN@DEGPLNFK@?$GAvector?5deleting?5destructor?8@ 000000018001bce8     libvcruntime:undname.obj
 0002:00000d08       ??_C@_0BO@OBMKPJIG@?$GAdefault?5constructor?5closure?8@ 000000018001bd08     libvcruntime:undname.obj
 0002:00000d28       ??_C@_0BN@IMDCHIKM@?$GAscalar?5deleting?5destructor?8@ 000000018001bd28     libvcruntime:undname.obj
 0002:00000d48       ??_C@_0BO@PFGOCPJJ@?$GAvector?5constructor?5iterator?8@ 000000018001bd48     libvcruntime:undname.obj
 0002:00000d68       ??_C@_0BN@LFPFMEDL@?$GAvector?5destructor?5iterator?8@ 000000018001bd68     libvcruntime:undname.obj
 0002:00000d88       ??_C@_0CE@IKBNEHA@?$GAvector?5vbase?5constructor?5itera@ 000000018001bd88     libvcruntime:undname.obj
 0002:00000db0       ??_C@_0BL@NILFHHPC@?$GAvirtual?5displacement?5map?8@ 000000018001bdb0     libvcruntime:undname.obj
 0002:00000dd0       ??_C@_0CB@JONCMFFK@?$GAeh?5vector?5constructor?5iterator@ 000000018001bdd0     libvcruntime:undname.obj
 0002:00000df8       ??_C@_0CA@GCEOPDGL@?$GAeh?5vector?5destructor?5iterator?8@ 000000018001bdf8     libvcruntime:undname.obj
 0002:00000e18       ??_C@_0CH@OOJPLCPH@?$GAeh?5vector?5vbase?5constructor?5it@ 000000018001be18     libvcruntime:undname.obj
 0002:00000e40       ??_C@_0BL@LLKPOHJI@?$GAcopy?5constructor?5closure?8@ 000000018001be40     libvcruntime:undname.obj
 0002:00000e60       ??_C@_0BA@KBCDOMBN@?$GAudt?5returning?8@ 000000018001be60     libvcruntime:undname.obj
 0002:00000e70       ??_C@_03KLGMFNMG@?$GAEH@   000000018001be70     libvcruntime:undname.obj
 0002:00000e74       ??_C@_05KHLCHHI@?$GARTTI@  000000018001be74     libvcruntime:undname.obj
 0002:00000e80       ??_C@_0BA@KKLDJDLB@?$GAlocal?5vftable?8@ 000000018001be80     libvcruntime:undname.obj
 0002:00000e90       ??_C@_0CE@IIHCMGGL@?$GAlocal?5vftable?5constructor?5clos@ 000000018001be90     libvcruntime:undname.obj
 0002:00000eb4       ??_C@_06FHBGPFGH@?5new?$FL?$FN@ 000000018001beb4     libvcruntime:undname.obj
 0002:00000ec0       ??_C@_09LBNFPBCA@?5delete?$FL?$FN@ 000000018001bec0     libvcruntime:undname.obj
 0002:00000ed0       ??_C@_0P@HJKNJFNN@?$GAomni?5callsig?8@ 000000018001bed0     libvcruntime:undname.obj
 0002:00000ee0       ??_C@_0BL@CNOONJFP@?$GAplacement?5delete?5closure?8@ 000000018001bee0     libvcruntime:undname.obj
 0002:00000f00       ??_C@_0BN@CKNJLHMB@?$GAplacement?5delete?$FL?$FN?5closure?8@ 000000018001bf00     libvcruntime:undname.obj
 0002:00000f20       ??_C@_0CG@CFDHKGGD@?$GAmanaged?5vector?5constructor?5ite@ 000000018001bf20     libvcruntime:undname.obj
 0002:00000f48       ??_C@_0CF@IMGKMJNO@?$GAmanaged?5vector?5destructor?5iter@ 000000018001bf48     libvcruntime:undname.obj
 0002:00000f70       ??_C@_0CG@HLDDJMAG@?$GAeh?5vector?5copy?5constructor?5ite@ 000000018001bf70     libvcruntime:undname.obj
 0002:00000f98       ??_C@_0CM@FCBBDIGB@?$GAeh?5vector?5vbase?5copy?5construct@ 000000018001bf98     libvcruntime:undname.obj
 0002:00000fc8       ??_C@_0BL@CLIPGLGB@?$GAdynamic?5initializer?5for?5?8@ 000000018001bfc8     libvcruntime:undname.obj
 0002:00000fe8       ??_C@_0CB@PDBIFEP@?$GAdynamic?5atexit?5destructor?5for?5@ 000000018001bfe8     libvcruntime:undname.obj
 0002:00001010       ??_C@_0CD@CGAJBKEJ@?$GAvector?5copy?5constructor?5iterat@ 000000018001c010     libvcruntime:undname.obj
 0002:00001038       ??_C@_0CJ@GJELGAMM@?$GAvector?5vbase?5copy?5constructor?5@ 000000018001c038     libvcruntime:undname.obj
 0002:00001068       ??_C@_0CL@FGIJHLCE@?$GAmanaged?5vector?5copy?5constructo@ 000000018001c068     libvcruntime:undname.obj
 0002:00001098       ??_C@_0BM@PMGGMLDN@?$GAlocal?5static?5thread?5guard?8@ 000000018001c098     libvcruntime:undname.obj
 0002:000010b8       ??_C@_0N@BDNMDMOL@operator?5?$CC?$CC?5@ 000000018001c0b8     libvcruntime:undname.obj
 0002:000010c8       ??_C@_0BC@GGEBGALA@operator?5co_await@ 000000018001c0c8     libvcruntime:undname.obj
 0002:000010e0       ??_C@_0M@GAAIMMOH@operator?$DM?$DN?$DO@ 000000018001c0e0     libvcruntime:undname.obj
 0002:000010f0       ??_C@_0BC@DAFEJGAK@?5Type?5Descriptor?8@ 000000018001c0f0     libvcruntime:undname.obj
 0002:00001108       ??_C@_0BM@LDKODKLH@?5Base?5Class?5Descriptor?5at?5?$CI@ 000000018001c108     libvcruntime:undname.obj
 0002:00001128       ??_C@_0BD@LGICGFMM@?5Base?5Class?5Array?8@ 000000018001c128     libvcruntime:undname.obj
 0002:00001140       ??_C@_0BN@MECKDCOJ@?5Class?5Hierarchy?5Descriptor?8@ 000000018001c140     libvcruntime:undname.obj
 0002:00001160       ??_C@_0BK@CFCOFLF@?5Complete?5Object?5Locator?8@ 000000018001c160     libvcruntime:undname.obj
 0002:00001180       ??_C@_0BG@JNJLAMPM@?$GAanonymous?5namespace?8@ 000000018001c180     libvcruntime:undname.obj
 0002:000011b0       ??_C@_1DM@KHCHBNEB@?$AAa?$AAp?$AAi?$AA?9?$AAm?$AAs?$AA?9?$AAw?$AAi?$AAn?$AA?9?$AAc?$AAo?$AAr?$AAe@ 000000018001c1b0     libvcruntime:winapi_downlevel.obj
 0002:000011f0       ??_C@_1DK@LPPGFMPP@?$AAa?$AAp?$AAi?$AA?9?$AAm?$AAs?$AA?9?$AAw?$AAi?$AAn?$AA?9?$AAc?$AAo?$AAr?$AAe@ 000000018001c1f0     libvcruntime:winapi_downlevel.obj
 0002:00001230       ??_C@_1BC@GDMECMAK@?$AAk?$AAe?$AAr?$AAn?$AAe?$AAl?$AA3?$AA2@ 000000018001c230     libvcruntime:winapi_downlevel.obj
 0002:00001248       ??_C@_1BA@PFFKHIOG@?$AAa?$AAp?$AAi?$AA?9?$AAm?$AAs?$AA?9@ 000000018001c248     libvcruntime:winapi_downlevel.obj
 0002:00001260       ??_C@_08KNHFBNJ@FlsAlloc@  000000018001c260     libvcruntime:winapi_downlevel.obj
 0002:00001278       ??_C@_07PEJMOBNF@FlsFree@  000000018001c278     libvcruntime:winapi_downlevel.obj
 0002:00001288       ??_C@_0M@GDNOONDI@FlsGetValue@ 000000018001c288     libvcruntime:winapi_downlevel.obj
 0002:000012a0       ??_C@_0M@JCPCPOEF@FlsSetValue@ 000000018001c2a0     libvcruntime:winapi_downlevel.obj
 0002:000012b8       ??_C@_0BM@HCFOFFN@InitializeCriticalSectionEx@ 000000018001c2b8     libvcruntime:winapi_downlevel.obj
 0002:000012e0       standard_lookup_table      000000018001c2e0     libucrt:output.obj
 0002:00001340       format_validation_lookup_table 000000018001c340     libucrt:output.obj
 0002:000013a0       ??_C@_1O@CEDCILHN@?$AA?$CI?$AAn?$AAu?$AAl?$AAl?$AA?$CJ@ 000000018001c3a0     libucrt:output.obj
 0002:000013b0       ??_C@_06OJHGLDPL@?$CInull?$CJ@ 000000018001c3b0     libucrt:output.obj
 0002:00001530       ??_C@_1FE@LHBLIKM@?$AAA?$AAs?$AAs?$AAe?$AAr?$AAt?$AAi?$AAo?$AAn?$AA?5?$AAf?$AAa?$AAi?$AAl?$AAe@ 000000018001c530     libucrt:assert.obj
 0002:00001590       ??_C@_1EK@MBDPDCGA@?$AAM?$AAi?$AAc?$AAr?$AAo?$AAs?$AAo?$AAf?$AAt?$AA?5?$AAV?$AAi?$AAs?$AAu?$AAa@ 000000018001c590     libucrt:assert.obj
 0002:000015e0       ??_C@_1CE@OJBNHDMO@?$AAA?$AAs?$AAs?$AAe?$AAr?$AAt?$AAi?$AAo?$AAn?$AA?5?$AAf?$AAa?$AAi?$AAl?$AAe@ 000000018001c5e0     libucrt:assert.obj
 0002:00001608       ??_C@_1BE@PHKBBGE@?$AAP?$AAr?$AAo?$AAg?$AAr?$AAa?$AAm?$AA?3?$AA?5@ 000000018001c608     libucrt:assert.obj
 0002:00001620       ??_C@_1O@HEMHKNDC@?$AAF?$AAi?$AAl?$AAe?$AA?3?$AA?5@ 000000018001c620     libucrt:assert.obj
 0002:00001630       ??_C@_1O@KCAFKHJE@?$AAL?$AAi?$AAn?$AAe?$AA?3?$AA?5@ 000000018001c630     libucrt:assert.obj
 0002:00001640       ??_C@_1BK@PEDCIPMA@?$AAE?$AAx?$AAp?$AAr?$AAe?$AAs?$AAs?$AAi?$AAo?$AAn?$AA?3?$AA?5@ 000000018001c640     libucrt:assert.obj
 0002:00001660       ??_C@_1OA@EGMLFBHJ@?$AAF?$AAo?$AAr?$AA?5?$AAi?$AAn?$AAf?$AAo?$AAr?$AAm?$AAa?$AAt?$AAi?$AAo?$AAn@ 000000018001c660     libucrt:assert.obj
 0002:00001740       ??_C@_1HK@POCJMFGK@?$AA?$CI?$AAP?$AAr?$AAe?$AAs?$AAs?$AA?5?$AAR?$AAe?$AAt?$AAr?$AAy?$AA?5?$AAt?$AAo@ 000000018001c740     libucrt:assert.obj
 0002:000017c0       ??_C@_17LGKOMLJ@?$AA?4?$AA?4?$AA?4@ 000000018001c7c0     libucrt:assert.obj
 0002:000017c8       ??_C@_13LBAGMAIH@?$AA?6@   000000018001c7c8     libucrt:assert.obj
 0002:000017cc       ??_C@_15IABLJNFO@?$AA?6?$AA?6@ 000000018001c7cc     libucrt:assert.obj
 0002:000017d8       ??_C@_1CO@EAEJAADC@?$AA?$DM?$AAp?$AAr?$AAo?$AAg?$AAr?$AAa?$AAm?$AA?5?$AAn?$AAa?$AAm?$AAe?$AA?5?$AAu@ 000000018001c7d8     libucrt:assert.obj
 0002:00001810       ??_C@_0EA@FCLIIPNN@Visual?5C?$CL?$CL?5CRT?3?5Not?5enough?5memo@ 000000018001c810     libucrt:strerror.obj
 0002:00001850       __acrt_exception_action_table 000000018001c850     libucrt:exception_filter.obj
 0002:00001910       __acrt_signal_action_table_count 000000018001c910     libucrt:exception_filter.obj
 0002:00001918       __acrt_signal_action_first_fpe_index 000000018001c918     libucrt:exception_filter.obj
 0002:00001920       __acrt_signal_action_fpe_count 000000018001c920     libucrt:exception_filter.obj
 0002:00001928       ??_C@_1BI@BGOHAHKC@?$AAm?$AAs?$AAc?$AAo?$AAr?$AAe?$AAe?$AA?4?$AAd?$AAl?$AAl@ 000000018001c928     libucrt:exit.obj
 0002:00001940       ??_C@_0P@MIGLKIOC@CorExitProcess@ 000000018001c940     libucrt:exit.obj
 0002:00001a50       __newctype                 000000018001ca50     libucrt:ctype.obj
 0002:00001d50       __newclmap                 000000018001cd50     libucrt:ctype.obj
 0002:00001ed0       __newcumap                 000000018001ced0     libucrt:ctype.obj
 0002:00002050       _wctype                    000000018001d050     libucrt:ctype.obj
 0002:00002260       __lc_time_c                000000018001d260     libucrt:nlsdata.obj
 0002:00002520       ??_C@_03KOEHGMDN@Sun@      000000018001d520     libucrt:nlsdata.obj
 0002:00002524       ??_C@_03PDAGKDH@Mon@       000000018001d524     libucrt:nlsdata.obj
 0002:00002528       ??_C@_03NAGEINEP@Tue@      000000018001d528     libucrt:nlsdata.obj
 0002:0000252c       ??_C@_03MHOMLAJA@Wed@      000000018001d52c     libucrt:nlsdata.obj
 0002:00002530       ??_C@_03IOFIKPDN@Thu@      000000018001d530     libucrt:nlsdata.obj
 0002:00002534       ??_C@_03IDIOELNC@Fri@      000000018001d534     libucrt:nlsdata.obj
 0002:00002538       ??_C@_03FEFJNEK@Sat@       000000018001d538     libucrt:nlsdata.obj
 0002:0000253c       ??_C@_06OOPIFAJ@Sunday@    000000018001d53c     libucrt:nlsdata.obj
 0002:00002544       ??_C@_06JLEDEDGH@Monday@   000000018001d544     libucrt:nlsdata.obj
 0002:00002550       ??_C@_07BAAGCFCM@Tuesday@  000000018001d550     libucrt:nlsdata.obj
 0002:00002558       ??_C@_09DLIGFAKA@Wednesday@ 000000018001d558     libucrt:nlsdata.obj
 0002:00002568       ??_C@_08HACCIKIA@Thursday@ 000000018001d568     libucrt:nlsdata.obj
 0002:00002574       ??_C@_06JECMNKMI@Friday@   000000018001d574     libucrt:nlsdata.obj
 0002:00002580       ??_C@_08INBOOONO@Saturday@ 000000018001d580     libucrt:nlsdata.obj
 0002:0000258c       ??_C@_03JIHJHPIE@Jan@      000000018001d58c     libucrt:nlsdata.obj
 0002:00002590       ??_C@_03HJBDCHOM@Feb@      000000018001d590     libucrt:nlsdata.obj
 0002:00002594       ??_C@_03ODNJBKGA@Mar@      000000018001d594     libucrt:nlsdata.obj
 0002:00002598       ??_C@_03LEOLGMJP@Apr@      000000018001d598     libucrt:nlsdata.obj
 0002:0000259c       ??_C@_03CNMDKL@May@        000000018001d59c     libucrt:nlsdata.obj
 0002:000025a0       ??_C@_03IDFGHECI@Jun@      000000018001d5a0     libucrt:nlsdata.obj
 0002:000025a4       ??_C@_03LBGABGKK@Jul@      000000018001d5a4     libucrt:nlsdata.obj
 0002:000025a8       ??_C@_03IFJFEIGA@Aug@      000000018001d5a8     libucrt:nlsdata.obj
 0002:000025ac       ??_C@_03GGCAPAJC@Sep@      000000018001d5ac     libucrt:nlsdata.obj
 0002:000025b0       ??_C@_03BMAOKBAD@Oct@      000000018001d5b0     libucrt:nlsdata.obj
 0002:000025b4       ??_C@_03JPJOFNIA@Nov@      000000018001d5b4     libucrt:nlsdata.obj
 0002:000025b8       ??_C@_03MKABNOCG@Dec@      000000018001d5b8     libucrt:nlsdata.obj
 0002:000025c0       ??_C@_07CGJPFGJA@January@  000000018001d5c0     libucrt:nlsdata.obj
 0002:000025c8       ??_C@_08GNJGEPFN@February@ 000000018001d5c8     libucrt:nlsdata.obj
 0002:000025d4       ??_C@_05HPCKOFNC@March@    000000018001d5d4     libucrt:nlsdata.obj
 0002:000025dc       ??_C@_05DMJDNLEJ@April@    000000018001d5dc     libucrt:nlsdata.obj
 0002:000025e4       ??_C@_04CNLMGBGM@June@     000000018001d5e4     libucrt:nlsdata.obj
 0002:000025ec       ??_C@_04MIEPOIFP@July@     000000018001d5ec     libucrt:nlsdata.obj
 0002:000025f4       ??_C@_06LBBHFDDG@August@   000000018001d5f4     libucrt:nlsdata.obj
 0002:00002600       ??_C@_09BHHEALKD@September@ 000000018001d600     libucrt:nlsdata.obj
 0002:00002610       ??_C@_07JJNFCEND@October@  000000018001d610     libucrt:nlsdata.obj
 0002:00002618       ??_C@_08HCHEGEOA@November@ 000000018001d618     libucrt:nlsdata.obj
 0002:00002628       ??_C@_08EDHMEBNP@December@ 000000018001d628     libucrt:nlsdata.obj
 0002:00002634       ??_C@_02DEDBPAFC@AM@       000000018001d634     libucrt:nlsdata.obj
 0002:00002638       ??_C@_02CJNFDJBF@PM@       000000018001d638     libucrt:nlsdata.obj
 0002:00002640       ??_C@_08BPBNCDIB@MM?1dd?1yy@ 000000018001d640     libucrt:nlsdata.obj
 0002:00002650       ??_C@_0BE@CKGJFCPC@dddd?0?5MMMM?5dd?0?5yyyy@ 000000018001d650     libucrt:nlsdata.obj
 0002:00002668       ??_C@_08JCCMCCIL@HH?3mm?3ss@ 000000018001d668     libucrt:nlsdata.obj
 0002:00002678       ??_C@_17MBGCMIPB@?$AAS?$AAu?$AAn@ 000000018001d678     libucrt:nlsdata.obj
 0002:00002680       ??_C@_17KBOMKBF@?$AAM?$AAo?$AAn@ 000000018001d680     libucrt:nlsdata.obj
 0002:00002688       ??_C@_17BMKGEGOJ@?$AAT?$AAu?$AAe@ 000000018001d688     libucrt:nlsdata.obj
 0002:00002690       ??_C@_17CJEDCEPE@?$AAW?$AAe?$AAd@ 000000018001d690     libucrt:nlsdata.obj
 0002:00002698       ??_C@_17PDPHAADD@?$AAT?$AAh?$AAu@ 000000018001d698     libucrt:nlsdata.obj
 0002:000026a0       ??_C@_17HFOLPPLP@?$AAF?$AAr?$AAi@ 000000018001d6a0     libucrt:nlsdata.obj
 0002:000026a8       ??_C@_17GGIBDPIH@?$AAS?$AAa?$AAt@ 000000018001d6a8     libucrt:nlsdata.obj
 0002:000026b0       ??_C@_1O@IHNHDHPB@?$AAS?$AAu?$AAn?$AAd?$AAa?$AAy@ 000000018001d6b0     libucrt:nlsdata.obj
 0002:000026c0       ??_C@_1O@MMNBFLIA@?$AAM?$AAo?$AAn?$AAd?$AAa?$AAy@ 000000018001d6c0     libucrt:nlsdata.obj
 0002:000026d0       ??_C@_1BA@ENFBFFEK@?$AAT?$AAu?$AAe?$AAs?$AAd?$AAa?$AAy@ 000000018001d6d0     libucrt:nlsdata.obj
 0002:000026e0       ??_C@_1BE@EBOGMDOH@?$AAW?$AAe?$AAd?$AAn?$AAe?$AAs?$AAd?$AAa?$AAy@ 000000018001d6e0     libucrt:nlsdata.obj
 0002:000026f8       ??_C@_1BC@HHMNLIHE@?$AAT?$AAh?$AAu?$AAr?$AAs?$AAd?$AAa?$AAy@ 000000018001d6f8     libucrt:nlsdata.obj
 0002:00002710       ??_C@_1O@PDICJHAG@?$AAF?$AAr?$AAi?$AAd?$AAa?$AAy@ 000000018001d710     libucrt:nlsdata.obj
 0002:00002720       ??_C@_1BC@ENMNNPAJ@?$AAS?$AAa?$AAt?$AAu?$AAr?$AAd?$AAa?$AAy@ 000000018001d720     libucrt:nlsdata.obj
 0002:00002738       ??_C@_17DKNBKCHM@?$AAJ?$AAa?$AAn@ 000000018001d738     libucrt:nlsdata.obj
 0002:00002740       ??_C@_17LMDJEKJN@?$AAF?$AAe?$AAb@ 000000018001d740     libucrt:nlsdata.obj
 0002:00002748       ??_C@_17CKNLEDEC@?$AAM?$AAa?$AAr@ 000000018001d748     libucrt:nlsdata.obj
 0002:00002750       ??_C@_17LFPOIHDD@?$AAA?$AAp?$AAr@ 000000018001d750     libucrt:nlsdata.obj
 0002:00002758       ??_C@_17PNNKMEED@?$AAM?$AAa?$AAy@ 000000018001d758     libucrt:nlsdata.obj
 0002:00002760       ??_C@_17KCJGOCPB@?$AAJ?$AAu?$AAn@ 000000018001d760     libucrt:nlsdata.obj
 0002:00002768       ??_C@_17IJPCKHK@?$AAJ?$AAu?$AAl@ 000000018001d768     libucrt:nlsdata.obj
 0002:00002770       ??_C@_17ICPELBCN@?$AAA?$AAu?$AAg@ 000000018001d770     libucrt:nlsdata.obj
 0002:00002778       ??_C@_17HCHCOKMG@?$AAS?$AAe?$AAp@ 000000018001d778     libucrt:nlsdata.obj
 0002:00002780       ??_C@_17FNLKOI@?$AAO?$AAc?$AAt@ 000000018001d780     libucrt:nlsdata.obj
 0002:00002788       ??_C@_17BBDMLCIG@?$AAN?$AAo?$AAv@ 000000018001d788     libucrt:nlsdata.obj
 0002:00002790       ??_C@_17EGKACKIF@?$AAD?$AAe?$AAc@ 000000018001d790     libucrt:nlsdata.obj
 0002:00002798       ??_C@_1BA@EFMEIEBA@?$AAJ?$AAa?$AAn?$AAu?$AAa?$AAr?$AAy@ 000000018001d798     libucrt:nlsdata.obj
 0002:000027a8       ??_C@_1BC@JGDDFFAM@?$AAF?$AAe?$AAb?$AAr?$AAu?$AAa?$AAr?$AAy@ 000000018001d7a8     libucrt:nlsdata.obj
 0002:000027c0       ??_C@_1M@IKEENEDF@?$AAM?$AAa?$AAr?$AAc?$AAh@ 000000018001d7c0     libucrt:nlsdata.obj
 0002:000027d0       ??_C@_1M@GJNLMHFD@?$AAA?$AAp?$AAr?$AAi?$AAl@ 000000018001d7d0     libucrt:nlsdata.obj
 0002:000027e0       ??_C@_19EPFLPGAP@?$AAJ?$AAu?$AAn?$AAe@ 000000018001d7e0     libucrt:nlsdata.obj
 0002:000027f0       ??_C@_19BIFMLPCD@?$AAJ?$AAu?$AAl?$AAy@ 000000018001d7f0     libucrt:nlsdata.obj
 0002:00002800       ??_C@_1O@PAHLKOAC@?$AAA?$AAu?$AAg?$AAu?$AAs?$AAt@ 000000018001d800     libucrt:nlsdata.obj
 0002:00002810       ??_C@_1BE@DKAAMBJL@?$AAS?$AAe?$AAp?$AAt?$AAe?$AAm?$AAb?$AAe?$AAr@ 000000018001d810     libucrt:nlsdata.obj
 0002:00002828       ??_C@_1BA@EPANDLNG@?$AAO?$AAc?$AAt?$AAo?$AAb?$AAe?$AAr@ 000000018001d828     libucrt:nlsdata.obj
 0002:00002838       ??_C@_1BC@BGLIFPF@?$AAN?$AAo?$AAv?$AAe?$AAm?$AAb?$AAe?$AAr@ 000000018001d838     libucrt:nlsdata.obj
 0002:00002850       ??_C@_1BC@FEMKIFH@?$AAD?$AAe?$AAc?$AAe?$AAm?$AAb?$AAe?$AAr@ 000000018001d850     libucrt:nlsdata.obj
 0002:00002864       ??_C@_15ODEHAHHF@?$AAA?$AAM@ 000000018001d864     libucrt:nlsdata.obj
 0002:0000286c       ??_C@_15CLMNNGEL@?$AAP?$AAM@ 000000018001d86c     libucrt:nlsdata.obj
 0002:00002878       ??_C@_1BC@IEBCMHCM@?$AAM?$AAM?$AA?1?$AAd?$AAd?$AA?1?$AAy?$AAy@ 000000018001d878     libucrt:nlsdata.obj
 0002:00002890       ??_C@_1CI@KNAKOEBC@?$AAd?$AAd?$AAd?$AAd?$AA?0?$AA?5?$AAM?$AAM?$AAM?$AAM?$AA?5?$AAd?$AAd?$AA?0?$AA?5@ 000000018001d890     libucrt:nlsdata.obj
 0002:000028b8       ??_C@_1BC@GDGBMEMK@?$AAH?$AAH?$AA?3?$AAm?$AAm?$AA?3?$AAs?$AAs@ 000000018001d8b8     libucrt:nlsdata.obj
 0002:000028d0       ??_C@_1M@BMHNFIME@?$AAe?$AAn?$AA?9?$AAU?$AAS@ 000000018001d8d0     libucrt:nlsdata.obj
 0002:00002960       ??_C@_03OEIAHPBN@INF@      000000018001d960     libucrt:cvt.obj
 0002:00002964       ??_C@_03OJHLLCGB@inf@      000000018001d964     libucrt:cvt.obj
 0002:00002968       ??_C@_03LKNCIKJB@NAN@      000000018001d968     libucrt:cvt.obj
 0002:0000296c       ??_C@_03LHCJEHON@nan@      000000018001d96c     libucrt:cvt.obj
 0002:00002970       ??_C@_09OFJJIMPC@NAN?$CISNAN?$CJ@ 000000018001d970     libucrt:cvt.obj
 0002:00002980       ??_C@_09IPFBKMDL@nan?$CIsnan?$CJ@ 000000018001d980     libucrt:cvt.obj
 0002:00002990       ??_C@_08IKHNHAJ@NAN?$CIIND?$CJ@ 000000018001d990     libucrt:cvt.obj
 0002:000029a0       ??_C@_08OFCDMILK@nan?$CIind?$CJ@ 000000018001d9a0     libucrt:cvt.obj
 0002:000029ac       ??_C@_05KLBDPFGC@e?$CL000@ 000000018001d9ac     libucrt:cvt.obj
 0002:000029c0       _sys_errlist               000000018001d9c0     libucrt:syserr.obj
 0002:00002b20       ??_C@_08INEPGKHH@No?5error@ 000000018001db20     libucrt:syserr.obj
 0002:00002b30       ??_C@_0BI@BJFCGOHL@Operation?5not?5permitted@ 000000018001db30     libucrt:syserr.obj
 0002:00002b48       ??_C@_0BK@FMDHKPNF@No?5such?5file?5or?5directory@ 000000018001db48     libucrt:syserr.obj
 0002:00002b68       ??_C@_0BA@FKIAIBGA@No?5such?5process@ 000000018001db68     libucrt:syserr.obj
 0002:00002b78       ??_C@_0BK@FJBOAFDK@Interrupted?5function?5call@ 000000018001db78     libucrt:syserr.obj
 0002:00002b98       ??_C@_0BD@KKNFOBBD@Input?1output?5error@ 000000018001db98     libucrt:syserr.obj
 0002:00002bb0       ??_C@_0BK@DPKMCKJ@No?5such?5device?5or?5address@ 000000018001dbb0     libucrt:syserr.obj
 0002:00002bd0       ??_C@_0BC@MFFGCDFL@Arg?5list?5too?5long@ 000000018001dbd0     libucrt:syserr.obj
 0002:00002be8       ??_C@_0BC@HKPNECK@Exec?5format?5error@ 000000018001dbe8     libucrt:syserr.obj
 0002:00002c00       ??_C@_0BE@NFGDDCEF@Bad?5file?5descriptor@ 000000018001dc00     libucrt:syserr.obj
 0002:00002c18       ??_C@_0BD@LOHELEP@No?5child?5processes@ 000000018001dc18     libucrt:syserr.obj
 0002:00002c30       ??_C@_0CB@EPFKGNAK@Resource?5temporarily?5unavailabl@ 000000018001dc30     libucrt:syserr.obj
 0002:00002c58       ??_C@_0BB@IMDKMPFB@Not?5enough?5space@ 000000018001dc58     libucrt:syserr.obj
 0002:00002c70       ??_C@_0BC@HFNFNKAI@Permission?5denied@ 000000018001dc70     libucrt:syserr.obj
 0002:00002c88       ??_C@_0M@LOEHLCJD@Bad?5address@ 000000018001dc88     libucrt:syserr.obj
 0002:00002c98       ??_C@_0O@NIPGCINC@Unknown?5error@ 000000018001dc98     libucrt:syserr.obj
 0002:00002ca8       ??_C@_0BA@BIBLIOEK@Resource?5device@ 000000018001dca8     libucrt:syserr.obj
 0002:00002cb8       ??_C@_0M@NAAJNNGH@File?5exists@ 000000018001dcb8     libucrt:syserr.obj
 0002:00002cc8       ??_C@_0O@OAMDNOCP@Improper?5link@ 000000018001dcc8     libucrt:syserr.obj
 0002:00002cd8       ??_C@_0P@NLEIANHE@No?5such?5device@ 000000018001dcd8     libucrt:syserr.obj
 0002:00002ce8       ??_C@_0BA@CJBACOOL@Not?5a?5directory@ 000000018001dce8     libucrt:syserr.obj
 0002:00002cf8       ??_C@_0P@NDHGCGKE@Is?5a?5directory@ 000000018001dcf8     libucrt:syserr.obj
 0002:00002d08       ??_C@_0BB@HMGGCEBG@Invalid?5argument@ 000000018001dd08     libucrt:syserr.obj
 0002:00002d20       ??_C@_0BO@IIFBODJE@Too?5many?5open?5files?5in?5system@ 000000018001dd20     libucrt:syserr.obj
 0002:00002d40       ??_C@_0BE@INBJMKGG@Too?5many?5open?5files@ 000000018001dd40     libucrt:syserr.obj
 0002:00002d58       ??_C@_0CE@ONOKNLPF@Inappropriate?5I?1O?5control?5opera@ 000000018001dd58     libucrt:syserr.obj
 0002:00002d80       ??_C@_0P@LFMMIPAE@File?5too?5large@ 000000018001dd80     libucrt:syserr.obj
 0002:00002d90       ??_C@_0BI@FEALHKLD@No?5space?5left?5on?5device@ 000000018001dd90     libucrt:syserr.obj
 0002:00002da8       ??_C@_0N@FEHLOILP@Invalid?5seek@ 000000018001dda8     libucrt:syserr.obj
 0002:00002db8       ??_C@_0BG@DDBFNKBH@Read?9only?5file?5system@ 000000018001ddb8     libucrt:syserr.obj
 0002:00002dd0       ??_C@_0P@PKCJJLLM@Too?5many?5links@ 000000018001ddd0     libucrt:syserr.obj
 0002:00002de0       ??_C@_0M@LHEPIIOM@Broken?5pipe@ 000000018001dde0     libucrt:syserr.obj
 0002:00002df0       ??_C@_0N@MMJPGLJK@Domain?5error@ 000000018001ddf0     libucrt:syserr.obj
 0002:00002e00       ??_C@_0BB@FCBJFCAJ@Result?5too?5large@ 000000018001de00     libucrt:syserr.obj
 0002:00002e18       ??_C@_0BK@JAEBMJJM@Resource?5deadlock?5avoided@ 000000018001de18     libucrt:syserr.obj
 0002:00002e38       ??_C@_0BC@BEDIHIDK@Filename?5too?5long@ 000000018001de38     libucrt:syserr.obj
 0002:00002e50       ??_C@_0BD@CLHBCGPB@No?5locks?5available@ 000000018001de50     libucrt:syserr.obj
 0002:00002e68       ??_C@_0BJ@IHEHINLI@Function?5not?5implemented@ 000000018001de68     libucrt:syserr.obj
 0002:00002e88       ??_C@_0BE@ICMCHPHH@Directory?5not?5empty@ 000000018001de88     libucrt:syserr.obj
 0002:00002ea0       ??_C@_0BG@KLEAJEFJ@Illegal?5byte?5sequence@ 000000018001dea0     libucrt:syserr.obj
 0002:00002eb8       _sys_nerr                  000000018001deb8     libucrt:syserr.obj
 0002:00002ee0       ??_C@_1M@HPNHIDJI@?$AAj?$AAa?$AA?9?$AAJ?$AAP@ 000000018001dee0     libucrt:mbctype.obj
 0002:00002ef0       ??_C@_1M@BIBDDEMK@?$AAz?$AAh?$AA?9?$AAC?$AAN@ 000000018001def0     libucrt:mbctype.obj
 0002:00002f00       ??_C@_1M@JLOOOEGK@?$AAk?$AAo?$AA?9?$AAK?$AAR@ 000000018001df00     libucrt:mbctype.obj
 0002:00002f10       ??_C@_1M@CLNBBOPM@?$AAz?$AAh?$AA?9?$AAT?$AAW@ 000000018001df10     libucrt:mbctype.obj
 0002:00002fc0       ??_C@_1EA@JGEFHKEI@?$AAa?$AAp?$AAi?$AA?9?$AAm?$AAs?$AA?9?$AAw?$AAi?$AAn?$AA?9?$AAc?$AAo?$AAr?$AAe@ 000000018001dfc0     libucrt:winapi_thunks.obj
 0002:00003000       ??_C@_1DI@IJCEHOCB@?$AAa?$AAp?$AAi?$AA?9?$AAm?$AAs?$AA?9?$AAw?$AAi?$AAn?$AA?9?$AAc?$AAo?$AAr?$AAe@ 000000018001e000     libucrt:winapi_thunks.obj
 0002:00003040       ??_C@_1EI@MPIAOHOC@?$AAa?$AAp?$AAi?$AA?9?$AAm?$AAs?$AA?9?$AAw?$AAi?$AAn?$AA?9?$AAc?$AAo?$AAr?$AAe@ 000000018001e040     libucrt:winapi_thunks.obj
 0002:00003090       ??_C@_1FK@FPHCKFIE@?$AAa?$AAp?$AAi?$AA?9?$AAm?$AAs?$AA?9?$AAw?$AAi?$AAn?$AA?9?$AAc?$AAo?$AAr?$AAe@ 000000018001e090     libucrt:winapi_thunks.obj
 0002:000030f0       ??_C@_1EM@DILCGIIO@?$AAa?$AAp?$AAi?$AA?9?$AAm?$AAs?$AA?9?$AAw?$AAi?$AAn?$AA?9?$AAc?$AAo?$AAr?$AAe@ 000000018001e0f0     libucrt:winapi_thunks.obj
 0002:00003140       ??_C@_1DM@LNCGDDPN@?$AAa?$AAp?$AAi?$AA?9?$AAm?$AAs?$AA?9?$AAw?$AAi?$AAn?$AA?9?$AAc?$AAo?$AAr?$AAe@ 000000018001e140     libucrt:winapi_thunks.obj
 0002:00003180       ??_C@_1DO@FPAPJEMD@?$AAa?$AAp?$AAi?$AA?9?$AAm?$AAs?$AA?9?$AAw?$AAi?$AAn?$AA?9?$AAc?$AAo?$AAr?$AAe@ 000000018001e180     libucrt:winapi_thunks.obj
 0002:000031c0       ??_C@_1DK@NDHNAHIO@?$AAa?$AAp?$AAi?$AA?9?$AAm?$AAs?$AA?9?$AAw?$AAi?$AAn?$AA?9?$AAc?$AAo?$AAr?$AAe@ 000000018001e1c0     libucrt:winapi_thunks.obj
 0002:00003200       ??_C@_1DM@KGHDGBCM@?$AAa?$AAp?$AAi?$AA?9?$AAm?$AAs?$AA?9?$AAw?$AAi?$AAn?$AA?9?$AAc?$AAo?$AAr?$AAe@ 000000018001e200     libucrt:winapi_thunks.obj
 0002:00003240       ??_C@_1EO@IJIOEFOH@?$AAa?$AAp?$AAi?$AA?9?$AAm?$AAs?$AA?9?$AAw?$AAi?$AAn?$AA?9?$AAr?$AAt?$AAc?$AAo@ 000000018001e240     libucrt:winapi_thunks.obj
 0002:00003290       ??_C@_1FG@HHGEKANL@?$AAa?$AAp?$AAi?$AA?9?$AAm?$AAs?$AA?9?$AAw?$AAi?$AAn?$AA?9?$AAs?$AAe?$AAc?$AAu@ 000000018001e290     libucrt:winapi_thunks.obj
 0002:000032f0       ??_C@_1EG@DBIOJECG@?$AAe?$AAx?$AAt?$AA?9?$AAm?$AAs?$AA?9?$AAw?$AAi?$AAn?$AA?9?$AAn?$AAt?$AAu?$AAs@ 000000018001e2f0     libucrt:winapi_thunks.obj
 0002:00003340       ??_C@_1EO@FIHMJCLF@?$AAe?$AAx?$AAt?$AA?9?$AAm?$AAs?$AA?9?$AAw?$AAi?$AAn?$AA?9?$AAn?$AAt?$AAu?$AAs@ 000000018001e340     libucrt:winapi_thunks.obj
 0002:00003390       ??_C@_1BC@DNHGCMLG@?$AAa?$AAd?$AAv?$AAa?$AAp?$AAi?$AA3?$AA2@ 000000018001e390     libucrt:winapi_thunks.obj
 0002:000033a8       ??_C@_1M@OAIMIKLP@?$AAn?$AAt?$AAd?$AAl?$AAl@ 000000018001e3a8     libucrt:winapi_thunks.obj
 0002:000033c0       ??_C@_1EG@DPGNFKGC@?$AAa?$AAp?$AAi?$AA?9?$AAm?$AAs?$AA?9?$AAw?$AAi?$AAn?$AA?9?$AAa?$AAp?$AAp?$AAm@ 000000018001e3c0     libucrt:winapi_thunks.obj
 0002:00003408       ??_C@_1O@BCCLBEOE@?$AAu?$AAs?$AAe?$AAr?$AA3?$AA2@ 000000018001e408     libucrt:winapi_thunks.obj
 0002:00003418       ??_C@_1BA@IAIFMGEF@?$AAe?$AAx?$AAt?$AA?9?$AAm?$AAs?$AA?9@ 000000018001e418     libucrt:winapi_thunks.obj
 0002:00003430       ??_C@_0BA@FHFNEAED@AreFileApisANSI@ 000000018001e430     libucrt:winapi_thunks.obj
 0002:00003468       ??_C@_0BA@HNOPNCHB@GetActiveWindow@ 000000018001e468     libucrt:winapi_thunks.obj
 0002:00003480       ??_C@_0BD@HHGDFDBJ@GetLastActivePopup@ 000000018001e480     libucrt:winapi_thunks.obj
 0002:000034a0       ??_C@_0BI@DFKBFLJE@GetProcessWindowStation@ 000000018001e4a0     libucrt:winapi_thunks.obj
 0002:000034c0       ??_C@_0BK@DEKFELLI@GetUserObjectInformationW@ 000000018001e4c0     libucrt:winapi_thunks.obj
 0002:000034f0       ??_C@_0O@KKBNKAPF@LCMapStringEx@ 000000018001e4f0     libucrt:winapi_thunks.obj
 0002:00003508       ??_C@_0BB@HBDEELFH@LocaleNameToLCID@ 000000018001e508     libucrt:winapi_thunks.obj
 0002:00003528       ??_C@_0M@CHKKJDAI@MessageBoxA@ 000000018001e528     libucrt:winapi_thunks.obj
 0002:00003540       ??_C@_0M@DLDCCGNP@MessageBoxW@ 000000018001e540     libucrt:winapi_thunks.obj
 0002:00003550       ??_C@_0CF@OJOFEIGO@AppPolicyGetProcessTerminationM@ 000000018001e550     libucrt:winapi_thunks.obj
 0002:00003580       ??_C@_0CE@OICFMIKE@AppPolicyGetShowDeveloperDiagno@ 000000018001e580     libucrt:winapi_thunks.obj
 0002:000035a8       ??_C@_0BL@ODDJNEDA@AppPolicyGetWindowingModel@ 000000018001e5a8     libucrt:winapi_thunks.obj
 0002:000035c4       ??_C@_15PJPFLCCM@?$AAu?$AAk@ 000000018001e5c4     libucrt:get_qualified_locale.obj
 0002:000035d0       ?large_power_data@?1??multiply_by_power_of_ten@__crt_strtox@@YA_NAEAUbig_integer@2@I@Z@4QBIB 000000018001e5d0     libucrt:cfout.obj
 0002:00003f78       ?small_powers_of_ten@?1??multiply_by_power_of_ten@__crt_strtox@@YA_NAEAUbig_integer@2@I@Z@4QBIB 000000018001ef78     libucrt:cfout.obj
 0002:00003f9c       ??_C@_01GBGANLPD@0@        000000018001ef9c     libucrt:cfout.obj
 0002:00003fa0       ??_C@_05DNEBIAHO@1?$CDINF@ 000000018001efa0     libucrt:cfout.obj
 0002:00003fa8       ??_C@_06IMKFLFPG@1?$CDQNAN@ 000000018001efa8     libucrt:cfout.obj
 0002:00003fb0       ??_C@_06PGGFOGJG@1?$CDSNAN@ 000000018001efb0     libucrt:cfout.obj
 0002:00003fb8       ??_C@_05PHHOCPM@1?$CDIND@  000000018001efb8     libucrt:cfout.obj
 0002:00004e00       ??_C@_15EMKDOKLE@?$AAa?$AAr@ 000000018001fe00     libucrt:lcidtoname_downlevel.obj
 0002:00004e08       ??_C@_15KNPADPLH@?$AAb?$AAg@ 000000018001fe08     libucrt:lcidtoname_downlevel.obj
 0002:00004e10       ??_C@_15EDMHLDMO@?$AAc?$AAa@ 000000018001fe10     libucrt:lcidtoname_downlevel.obj
 0002:00004e18       ??_C@_1O@BPEAJADD@?$AAz?$AAh?$AA?9?$AAC?$AAH?$AAS@ 000000018001fe18     libucrt:lcidtoname_downlevel.obj
 0002:00004e28       ??_C@_15LJNHCMNK@?$AAc?$AAs@ 000000018001fe28     libucrt:lcidtoname_downlevel.obj
 0002:00004e30       ??_C@_15FOMCIDHG@?$AAd?$AAa@ 000000018001fe30     libucrt:lcidtoname_downlevel.obj
 0002:00004e38       ??_C@_15NBKABECB@?$AAd?$AAe@ 000000018001fe38     libucrt:lcidtoname_downlevel.obj
 0002:00004e40       ??_C@_15GHPEIIAO@?$AAe?$AAl@ 000000018001fe40     libucrt:lcidtoname_downlevel.obj
 0002:00004e48       ??_C@_15MNPNEAIF@?$AAe?$AAn@ 000000018001fe48     libucrt:lcidtoname_downlevel.obj
 0002:00004e50       ??_C@_15GPIOMPMH@?$AAe?$AAs@ 000000018001fe50     libucrt:lcidtoname_downlevel.obj
 0002:00004e58       ??_C@_15NGLOAKJC@?$AAf?$AAi@ 000000018001fe58     libucrt:lcidtoname_downlevel.obj
 0002:00004e60       ??_C@_15FBKGNKAM@?$AAf?$AAr@ 000000018001fe60     libucrt:lcidtoname_downlevel.obj
 0002:00004e68       ??_C@_15KGGCNEFK@?$AAh?$AAe@ 000000018001fe68     libucrt:lcidtoname_downlevel.obj
 0002:00004e70       ??_C@_15PGHLIDMF@?$AAh?$AAu@ 000000018001fe70     libucrt:lcidtoname_downlevel.obj
 0002:00004e78       ??_C@_15BIEMAPLM@?$AAi?$AAs@ 000000018001fe78     libucrt:lcidtoname_downlevel.obj
 0002:00004e80       ??_C@_15IFJLDHAF@?$AAi?$AAt@ 000000018001fe80     libucrt:lcidtoname_downlevel.obj
 0002:00004e88       ??_C@_15GEMIOCAG@?$AAj?$AAa@ 000000018001fe88     libucrt:lcidtoname_downlevel.obj
 0002:00004e90       ??_C@_15EPELEGJA@?$AAk?$AAo@ 000000018001fe90     libucrt:lcidtoname_downlevel.obj
 0002:00004e98       ??_C@_15NDDHIMN@?$AAn?$AAl@ 000000018001fe98     libucrt:lcidtoname_downlevel.obj
 0002:00004ea0       ??_C@_15BPIGNHCD@?$AAn?$AAo@ 000000018001fea0     libucrt:lcidtoname_downlevel.obj
 0002:00004ea8       ??_C@_15DEOPBLCG@?$AAp?$AAl@ 000000018001fea8     libucrt:lcidtoname_downlevel.obj
 0002:00004eb0       ??_C@_15KBECGEFG@?$AAp?$AAt@ 000000018001feb0     libucrt:lcidtoname_downlevel.obj
 0002:00004eb8       ??_C@_15GLJCBFMD@?$AAr?$AAo@ 000000018001feb8     libucrt:lcidtoname_downlevel.obj
 0002:00004ec0       ??_C@_15FEDGKCDI@?$AAr?$AAu@ 000000018001fec0     libucrt:lcidtoname_downlevel.obj
 0002:00004ec8       ??_C@_15GLKMLLHM@?$AAh?$AAr@ 000000018001fec8     libucrt:lcidtoname_downlevel.obj
 0002:00004ed0       ??_C@_15CPKMFBDB@?$AAs?$AAk@ 000000018001fed0     libucrt:lcidtoname_downlevel.obj
 0002:00004ed8       ??_C@_15BAAIOGMK@?$AAs?$AAq@ 000000018001fed8     libucrt:lcidtoname_downlevel.obj
 0002:00004ee0       ??_C@_15INNPNOHD@?$AAs?$AAv@ 000000018001fee0     libucrt:lcidtoname_downlevel.obj
 0002:00004ee8       ??_C@_15CABMMOGH@?$AAt?$AAh@ 000000018001fee8     libucrt:lcidtoname_downlevel.obj
 0002:00004ef0       ??_C@_15BPLIHJJM@?$AAt?$AAr@ 000000018001fef0     libucrt:lcidtoname_downlevel.obj
 0002:00004ef8       ??_C@_15NEOEKKDJ@?$AAu?$AAr@ 000000018001fef8     libucrt:lcidtoname_downlevel.obj
 0002:00004f00       ??_C@_15NFICGAJK@?$AAi?$AAd@ 000000018001ff00     libucrt:lcidtoname_downlevel.obj
 0002:00004f08       ??_C@_15HPJPHDM@?$AAb?$AAe@ 000000018001ff08     libucrt:lcidtoname_downlevel.obj
 0002:00004f10       ??_C@_15LCHLGJII@?$AAs?$AAl@ 000000018001ff10     libucrt:lcidtoname_downlevel.obj
 0002:00004f18       ??_C@_15PCFJPHHO@?$AAe?$AAt@ 000000018001ff18     libucrt:lcidtoname_downlevel.obj
 0002:00004f20       ??_C@_15HPFPGODN@?$AAl?$AAv@ 000000018001ff20     libucrt:lcidtoname_downlevel.obj
 0002:00004f28       ??_C@_15NFFGKGLG@?$AAl?$AAt@ 000000018001ff28     libucrt:lcidtoname_downlevel.obj
 0002:00004f30       ??_C@_15BDAKCCHN@?$AAf?$AAa@ 000000018001ff30     libucrt:lcidtoname_downlevel.obj
 0002:00004f38       ??_C@_15NFGIAIAJ@?$AAv?$AAi@ 000000018001ff38     libucrt:lcidtoname_downlevel.obj
 0002:00004f40       ??_C@_15LMKNDMHN@?$AAh?$AAy@ 000000018001ff40     libucrt:lcidtoname_downlevel.obj
 0002:00004f48       ??_C@_15IJBHMCFL@?$AAa?$AAz@ 000000018001ff48     libucrt:lcidtoname_downlevel.obj
 0002:00004f50       ??_C@_15EKOFJABL@?$AAe?$AAu@ 000000018001ff50     libucrt:lcidtoname_downlevel.obj
 0002:00004f58       ??_C@_15BGHADCNK@?$AAm?$AAk@ 000000018001ff58     libucrt:lcidtoname_downlevel.obj
 0002:00004f60       ??_C@_15JDNICKHM@?$AAa?$AAf@ 000000018001ff60     libucrt:lcidtoname_downlevel.obj
 0002:00004f68       ??_C@_15KPJEDBKD@?$AAk?$AAa@ 000000018001ff68     libucrt:lcidtoname_downlevel.obj
 0002:00004f70       ??_C@_15PDNFFFEO@?$AAf?$AAo@ 000000018001ff70     libucrt:lcidtoname_downlevel.obj
 0002:00004f78       ??_C@_15OMLEGLOC@?$AAh?$AAi@ 000000018001ff78     libucrt:lcidtoname_downlevel.obj
 0002:00004f80       ??_C@_15IDNNENKK@?$AAm?$AAs@ 000000018001ff80     libucrt:lcidtoname_downlevel.obj
 0002:00004f88       ??_C@_15MACJNBMH@?$AAk?$AAk@ 000000018001ff88     libucrt:lcidtoname_downlevel.obj
 0002:00004f90       ??_C@_15DKDJEOND@?$AAk?$AAy@ 000000018001ff90     libucrt:lcidtoname_downlevel.obj
 0002:00004f98       ??_C@_15DFGDLJBG@?$AAs?$AAw@ 000000018001ff98     libucrt:lcidtoname_downlevel.obj
 0002:00004fa0       ??_C@_15BBFAICNG@?$AAu?$AAz@ 000000018001ffa0     libucrt:lcidtoname_downlevel.obj
 0002:00004fa8       ??_C@_15DKNDCGEA@?$AAt?$AAt@ 000000018001ffa8     libucrt:lcidtoname_downlevel.obj
 0002:00004fb0       ??_C@_15MGIFMDPL@?$AAp?$AAa@ 000000018001ffb0     libucrt:lcidtoname_downlevel.obj
 0002:00004fb8       ??_C@_15HCNDBBA@?$AAg?$AAu@ 000000018001ffb8     libucrt:lcidtoname_downlevel.obj
 0002:00004fc0       ??_C@_15FNBEIBON@?$AAt?$AAa@ 000000018001ffc0     libucrt:lcidtoname_downlevel.obj
 0002:00004fc8       ??_C@_15NCHGBGLK@?$AAt?$AAe@ 000000018001ffc8     libucrt:lcidtoname_downlevel.obj
 0002:00004fd0       ??_C@_15PHPHCBPF@?$AAk?$AAn@ 000000018001ffd0     libucrt:lcidtoname_downlevel.obj
 0002:00004fd8       ??_C@_15DLGBCKMP@?$AAm?$AAr@ 000000018001ffd8     libucrt:lcidtoname_downlevel.obj
 0002:00004fe0       ??_C@_15EABBLBFF@?$AAs?$AAa@ 000000018001ffe0     libucrt:lcidtoname_downlevel.obj
 0002:00004fe8       ??_C@_15CBKOMCOI@?$AAm?$AAn@ 000000018001ffe8     libucrt:lcidtoname_downlevel.obj
 0002:00004ff0       ??_C@_15CKDMCJAF@?$AAg?$AAl@ 000000018001fff0     libucrt:lcidtoname_downlevel.obj
 0002:00004ff8       ??_C@_17CNJFBPG@?$AAk?$AAo?$AAk@ 000000018001fff8     libucrt:lcidtoname_downlevel.obj
 0002:00005000       ??_C@_17FFBJICPL@?$AAs?$AAy?$AAr@ 0000000180020000     libucrt:lcidtoname_downlevel.obj
 0002:00005008       ??_C@_17KPNDCPAF@?$AAd?$AAi?$AAv@ 0000000180020008     libucrt:lcidtoname_downlevel.obj
 0002:00005010       ??_C@_11LOCGONAA@@         0000000180020010     libucrt:lcidtoname_downlevel.obj
 0002:00005018       ??_C@_1M@OKAHONE@?$AAa?$AAr?$AA?9?$AAS?$AAA@ 0000000180020018     libucrt:lcidtoname_downlevel.obj
 0002:00005028       ??_C@_1M@FFFIGIGK@?$AAb?$AAg?$AA?9?$AAB?$AAG@ 0000000180020028     libucrt:lcidtoname_downlevel.obj
 0002:00005038       ??_C@_1M@BJNKEDC@?$AAc?$AAa?$AA?9?$AAE?$AAS@ 0000000180020038     libucrt:lcidtoname_downlevel.obj
 0002:00005048       ??_C@_1M@IJJHFJHA@?$AAc?$AAs?$AA?9?$AAC?$AAZ@ 0000000180020048     libucrt:lcidtoname_downlevel.obj
 0002:00005058       ??_C@_1M@CLPEOBGI@?$AAd?$AAa?$AA?9?$AAD?$AAK@ 0000000180020058     libucrt:lcidtoname_downlevel.obj
 0002:00005068       ??_C@_1M@MCMADGCB@?$AAd?$AAe?$AA?9?$AAD?$AAE@ 0000000180020068     libucrt:lcidtoname_downlevel.obj
 0002:00005078       ??_C@_1M@OOCKEMAM@?$AAe?$AAl?$AA?9?$AAG?$AAR@ 0000000180020078     libucrt:lcidtoname_downlevel.obj
 0002:00005088       ??_C@_1M@DDNJFGID@?$AAf?$AAi?$AA?9?$AAF?$AAI@ 0000000180020088     libucrt:lcidtoname_downlevel.obj
 0002:00005098       ??_C@_1M@GLIPPMAC@?$AAf?$AAr?$AA?9?$AAF?$AAR@ 0000000180020098     libucrt:lcidtoname_downlevel.obj
 0002:000050a8       ??_C@_1M@GFMCHPE@?$AAh?$AAe?$AA?9?$AAI?$AAL@ 00000001800200a8     libucrt:lcidtoname_downlevel.obj
 0002:000050b8       ??_C@_1M@MHLPGNKM@?$AAh?$AAu?$AA?9?$AAH?$AAU@ 00000001800200b8     libucrt:lcidtoname_downlevel.obj
 0002:000050c8       ??_C@_1M@LPDDNNPN@?$AAi?$AAs?$AA?9?$AAI?$AAS@ 00000001800200c8     libucrt:lcidtoname_downlevel.obj
 0002:000050d8       ??_C@_1M@MADIPODN@?$AAi?$AAt?$AA?9?$AAI?$AAT@ 00000001800200d8     libucrt:lcidtoname_downlevel.obj
 0002:000050e8       ??_C@_1M@IHBJJGG@?$AAn?$AAl?$AA?9?$AAN?$AAL@ 00000001800200e8     libucrt:lcidtoname_downlevel.obj
 0002:000050f8       ??_C@_1M@EANAGDL@?$AAn?$AAb?$AA?9?$AAN?$AAO@ 00000001800200f8     libucrt:lcidtoname_downlevel.obj
 0002:00005108       ??_C@_1M@NEIEMEGP@?$AAp?$AAl?$AA?9?$AAP?$AAL@ 0000000180020108     libucrt:lcidtoname_downlevel.obj
 0002:00005118       ??_C@_1M@BOCFIGEP@?$AAp?$AAt?$AA?9?$AAB?$AAR@ 0000000180020118     libucrt:lcidtoname_downlevel.obj
 0002:00005128       ??_C@_1M@IMPFOPBG@?$AAr?$AAo?$AA?9?$AAR?$AAO@ 0000000180020128     libucrt:lcidtoname_downlevel.obj
 0002:00005138       ??_C@_1M@IDNNEJMM@?$AAr?$AAu?$AA?9?$AAR?$AAU@ 0000000180020138     libucrt:lcidtoname_downlevel.obj
 0002:00005148       ??_C@_1M@LILEEOGM@?$AAh?$AAr?$AA?9?$AAH?$AAR@ 0000000180020148     libucrt:lcidtoname_downlevel.obj
 0002:00005158       ??_C@_1M@FKIFEHPB@?$AAs?$AAk?$AA?9?$AAS?$AAK@ 0000000180020158     libucrt:lcidtoname_downlevel.obj
 0002:00005168       ??_C@_1M@LJMAMNPJ@?$AAs?$AAq?$AA?9?$AAA?$AAL@ 0000000180020168     libucrt:lcidtoname_downlevel.obj
 0002:00005178       ??_C@_1M@GIAKDKJK@?$AAs?$AAv?$AA?9?$AAS?$AAE@ 0000000180020178     libucrt:lcidtoname_downlevel.obj
 0002:00005188       ??_C@_1M@MKJKIKCL@?$AAt?$AAh?$AA?9?$AAT?$AAH@ 0000000180020188     libucrt:lcidtoname_downlevel.obj
 0002:00005198       ??_C@_1M@MFLCCMPB@?$AAt?$AAr?$AA?9?$AAT?$AAR@ 0000000180020198     libucrt:lcidtoname_downlevel.obj
 0002:000051a8       ??_C@_1M@OIJHDKJN@?$AAu?$AAr?$AA?9?$AAP?$AAK@ 00000001800201a8     libucrt:lcidtoname_downlevel.obj
 0002:000051b8       ??_C@_1M@LHIPCIEK@?$AAi?$AAd?$AA?9?$AAI?$AAD@ 00000001800201b8     libucrt:lcidtoname_downlevel.obj
 0002:000051c8       ??_C@_1M@MFMOBGI@?$AAu?$AAk?$AA?9?$AAU?$AAA@ 00000001800201c8     libucrt:lcidtoname_downlevel.obj
 0002:000051d8       ??_C@_1M@OBGLJIPL@?$AAb?$AAe?$AA?9?$AAB?$AAY@ 00000001800201d8     libucrt:lcidtoname_downlevel.obj
 0002:000051e8       ??_C@_1M@BCFAJEAD@?$AAs?$AAl?$AA?9?$AAS?$AAI@ 00000001800201e8     libucrt:lcidtoname_downlevel.obj
 0002:000051f8       ??_C@_1M@FKFFEDDN@?$AAe?$AAt?$AA?9?$AAE?$AAE@ 00000001800201f8     libucrt:lcidtoname_downlevel.obj
 0002:00005208       ??_C@_1M@KGKKAACI@?$AAl?$AAv?$AA?9?$AAL?$AAV@ 0000000180020208     libucrt:lcidtoname_downlevel.obj
 0002:00005218       ??_C@_1M@IFGBIJO@?$AAl?$AAt?$AA?9?$AAL?$AAT@ 0000000180020218     libucrt:lcidtoname_downlevel.obj
 0002:00005228       ??_C@_1M@FGEAHEDM@?$AAf?$AAa?$AA?9?$AAI?$AAR@ 0000000180020228     libucrt:lcidtoname_downlevel.obj
 0002:00005238       ??_C@_1M@KBMAIBFN@?$AAv?$AAi?$AA?9?$AAV?$AAN@ 0000000180020238     libucrt:lcidtoname_downlevel.obj
 0002:00005248       ??_C@_1M@GPCBKDJK@?$AAh?$AAy?$AA?9?$AAA?$AAM@ 0000000180020248     libucrt:lcidtoname_downlevel.obj
 0002:00005258       ??_C@_1BG@BECMDDJB@?$AAa?$AAz?$AA?9?$AAA?$AAZ?$AA?9?$AAL?$AAa?$AAt?$AAn@ 0000000180020258     libucrt:lcidtoname_downlevel.obj
 0002:00005270       ??_C@_1M@MAOFCAEA@?$AAe?$AAu?$AA?9?$AAE?$AAS@ 0000000180020270     libucrt:lcidtoname_downlevel.obj
 0002:00005280       ??_C@_1M@IGHABKPI@?$AAm?$AAk?$AA?9?$AAM?$AAK@ 0000000180020280     libucrt:lcidtoname_downlevel.obj
 0002:00005290       ??_C@_1M@IAIGNEJG@?$AAt?$AAn?$AA?9?$AAZ?$AAA@ 0000000180020290     libucrt:lcidtoname_downlevel.obj
 0002:000052a0       ??_C@_1M@IIJCOJFA@?$AAx?$AAh?$AA?9?$AAZ?$AAA@ 00000001800202a0     libucrt:lcidtoname_downlevel.obj
 0002:000052b0       ??_C@_1M@LGPJHNJH@?$AAz?$AAu?$AA?9?$AAZ?$AAA@ 00000001800202b0     libucrt:lcidtoname_downlevel.obj
 0002:000052c0       ??_C@_1M@HOKAOIO@?$AAa?$AAf?$AA?9?$AAZ?$AAA@ 00000001800202c0     libucrt:lcidtoname_downlevel.obj
 0002:000052d0       ??_C@_1M@DPCLHLIE@?$AAk?$AAa?$AA?9?$AAG?$AAE@ 00000001800202d0     libucrt:lcidtoname_downlevel.obj
 0002:000052e0       ??_C@_1M@BLKMHJBI@?$AAf?$AAo?$AA?9?$AAF?$AAO@ 00000001800202e0     libucrt:lcidtoname_downlevel.obj
 0002:000052f0       ??_C@_1M@LGGJAPPB@?$AAh?$AAi?$AA?9?$AAI?$AAN@ 00000001800202f0     libucrt:lcidtoname_downlevel.obj
 0002:00005300       ??_C@_1M@FIKPIHFE@?$AAm?$AAt?$AA?9?$AAM?$AAT@ 0000000180020300     libucrt:lcidtoname_downlevel.obj
 0002:00005310       ??_C@_1M@HEGGPBFA@?$AAs?$AAe?$AA?9?$AAN?$AAO@ 0000000180020310     libucrt:lcidtoname_downlevel.obj
 0002:00005320       ??_C@_1M@EIBJEEPA@?$AAm?$AAs?$AA?9?$AAM?$AAY@ 0000000180020320     libucrt:lcidtoname_downlevel.obj
 0002:00005330       ??_C@_1M@FHLBGMPP@?$AAk?$AAk?$AA?9?$AAK?$AAZ@ 0000000180020330     libucrt:lcidtoname_downlevel.obj
 0002:00005340       ??_C@_1M@NGJJLCGI@?$AAk?$AAy?$AA?9?$AAK?$AAG@ 0000000180020340     libucrt:lcidtoname_downlevel.obj
 0002:00005350       ??_C@_1M@GIENNBFC@?$AAs?$AAw?$AA?9?$AAK?$AAE@ 0000000180020350     libucrt:lcidtoname_downlevel.obj
 0002:00005360       ??_C@_1BG@NDGMJIMJ@?$AAu?$AAz?$AA?9?$AAU?$AAZ?$AA?9?$AAL?$AAa?$AAt?$AAn@ 0000000180020360     libucrt:lcidtoname_downlevel.obj
 0002:00005378       ??_C@_1M@IDCCIHBC@?$AAt?$AAt?$AA?9?$AAR?$AAU@ 0000000180020378     libucrt:lcidtoname_downlevel.obj
 0002:00005388       ??_C@_1M@LOICPMOJ@?$AAb?$AAn?$AA?9?$AAI?$AAN@ 0000000180020388     libucrt:lcidtoname_downlevel.obj
 0002:00005398       ??_C@_1M@KPKKNEAH@?$AAp?$AAa?$AA?9?$AAI?$AAN@ 0000000180020398     libucrt:lcidtoname_downlevel.obj
 0002:000053a8       ??_C@_1M@PJGPPBOG@?$AAg?$AAu?$AA?9?$AAI?$AAN@ 00000001800203a8     libucrt:lcidtoname_downlevel.obj
 0002:000053b8       ??_C@_1M@KMKMOPHI@?$AAt?$AAa?$AA?9?$AAI?$AAN@ 00000001800203b8     libucrt:lcidtoname_downlevel.obj
 0002:000053c8       ??_C@_1M@KFEHEPAC@?$AAt?$AAe?$AA?9?$AAI?$AAN@ 00000001800203c8     libucrt:lcidtoname_downlevel.obj
 0002:000053d8       ??_C@_1M@CDCLMGHI@?$AAk?$AAn?$AA?9?$AAI?$AAN@ 00000001800203d8     libucrt:lcidtoname_downlevel.obj
 0002:000053e8       ??_C@_1M@MIODLDKF@?$AAm?$AAl?$AA?9?$AAI?$AAN@ 00000001800203e8     libucrt:lcidtoname_downlevel.obj
 0002:000053f8       ??_C@_1M@PBIEACPO@?$AAm?$AAr?$AA?9?$AAI?$AAN@ 00000001800203f8     libucrt:lcidtoname_downlevel.obj
 0002:00005408       ??_C@_1M@NIDEAGPH@?$AAs?$AAa?$AA?9?$AAI?$AAN@ 0000000180020408     libucrt:lcidtoname_downlevel.obj
 0002:00005418       ??_C@_1M@FHIHCBIO@?$AAm?$AAn?$AA?9?$AAM?$AAN@ 0000000180020418     libucrt:lcidtoname_downlevel.obj
 0002:00005428       ??_C@_1M@JAIJPENP@?$AAc?$AAy?$AA?9?$AAG?$AAB@ 0000000180020428     libucrt:lcidtoname_downlevel.obj
 0002:00005438       ??_C@_1M@PHGFBEPN@?$AAg?$AAl?$AA?9?$AAE?$AAS@ 0000000180020438     libucrt:lcidtoname_downlevel.obj
 0002:00005448       ??_C@_1O@KPIPDNCP@?$AAk?$AAo?$AAk?$AA?9?$AAI?$AAN@ 0000000180020448     libucrt:lcidtoname_downlevel.obj
 0002:00005458       ??_C@_1O@KNHJLDJA@?$AAs?$AAy?$AAr?$AA?9?$AAS?$AAY@ 0000000180020458     libucrt:lcidtoname_downlevel.obj
 0002:00005468       ??_C@_1O@MKEKBLAH@?$AAd?$AAi?$AAv?$AA?9?$AAM?$AAV@ 0000000180020468     libucrt:lcidtoname_downlevel.obj
 0002:00005478       ??_C@_1O@OHDCKDDF@?$AAq?$AAu?$AAz?$AA?9?$AAB?$AAO@ 0000000180020478     libucrt:lcidtoname_downlevel.obj
 0002:00005488       ??_C@_1M@LEPJNLFD@?$AAn?$AAs?$AA?9?$AAZ?$AAA@ 0000000180020488     libucrt:lcidtoname_downlevel.obj
 0002:00005498       ??_C@_1M@OMLEIIJB@?$AAm?$AAi?$AA?9?$AAN?$AAZ@ 0000000180020498     libucrt:lcidtoname_downlevel.obj
 0002:000054a8       ??_C@_1M@PMPEAILG@?$AAa?$AAr?$AA?9?$AAI?$AAQ@ 00000001800204a8     libucrt:lcidtoname_downlevel.obj
 0002:000054b8       ??_C@_1M@CNKPNOEE@?$AAd?$AAe?$AA?9?$AAC?$AAH@ 00000001800204b8     libucrt:lcidtoname_downlevel.obj
 0002:000054c8       ??_C@_1M@LKMGMLKO@?$AAe?$AAn?$AA?9?$AAG?$AAB@ 00000001800204c8     libucrt:lcidtoname_downlevel.obj
 0002:000054d8       ??_C@_1M@PGKJFFGL@?$AAe?$AAs?$AA?9?$AAM?$AAX@ 00000001800204d8     libucrt:lcidtoname_downlevel.obj
 0002:000054e8       ??_C@_1M@DNNANBDC@?$AAf?$AAr?$AA?9?$AAB?$AAE@ 00000001800204e8     libucrt:lcidtoname_downlevel.obj
 0002:000054f8       ??_C@_1M@HLGMDFHM@?$AAi?$AAt?$AA?9?$AAC?$AAH@ 00000001800204f8     libucrt:lcidtoname_downlevel.obj
 0002:00005508       ??_C@_1M@CLLBGJH@?$AAn?$AAl?$AA?9?$AAB?$AAE@ 0000000180020508     libucrt:lcidtoname_downlevel.obj
 0002:00005518       ??_C@_1M@BODBOGLF@?$AAn?$AAn?$AA?9?$AAN?$AAO@ 0000000180020518     libucrt:lcidtoname_downlevel.obj
 0002:00005528       ??_C@_1M@HFFAHKAD@?$AAp?$AAt?$AA?9?$AAP?$AAT@ 0000000180020528     libucrt:lcidtoname_downlevel.obj
 0002:00005538       ??_C@_1BG@LNOAKHIE@?$AAs?$AAr?$AA?9?$AAS?$AAP?$AA?9?$AAL?$AAa?$AAt?$AAn@ 0000000180020538     libucrt:lcidtoname_downlevel.obj
 0002:00005550       ??_C@_1M@HBMHBGAK@?$AAs?$AAv?$AA?9?$AAF?$AAI@ 0000000180020550     libucrt:lcidtoname_downlevel.obj
 0002:00005560       ??_C@_1BG@DGCJGJBE@?$AAa?$AAz?$AA?9?$AAA?$AAZ?$AA?9?$AAC?$AAy?$AAr?$AAl@ 0000000180020560     libucrt:lcidtoname_downlevel.obj
 0002:00005578       ??_C@_1M@KEJDAAHB@?$AAs?$AAe?$AA?9?$AAS?$AAE@ 0000000180020578     libucrt:lcidtoname_downlevel.obj
 0002:00005588       ??_C@_1M@HEIBJJAD@?$AAm?$AAs?$AA?9?$AAB?$AAN@ 0000000180020588     libucrt:lcidtoname_downlevel.obj
 0002:00005598       ??_C@_1BG@PBGJMCEM@?$AAu?$AAz?$AA?9?$AAU?$AAZ?$AA?9?$AAC?$AAy?$AAr?$AAl@ 0000000180020598     libucrt:lcidtoname_downlevel.obj
 0002:000055b0       ??_C@_1O@LAOBCMDF@?$AAq?$AAu?$AAz?$AA?9?$AAE?$AAC@ 00000001800205b0     libucrt:lcidtoname_downlevel.obj
 0002:000055c0       ??_C@_1M@POEEMAIO@?$AAa?$AAr?$AA?9?$AAE?$AAG@ 00000001800205c0     libucrt:lcidtoname_downlevel.obj
 0002:000055d0       ??_C@_1M@EFAKDEDL@?$AAz?$AAh?$AA?9?$AAH?$AAK@ 00000001800205d0     libucrt:lcidtoname_downlevel.obj
 0002:000055e0       ??_C@_1M@HKKIJHGI@?$AAd?$AAe?$AA?9?$AAA?$AAT@ 00000001800205e0     libucrt:lcidtoname_downlevel.obj
 0002:000055f0       ??_C@_1M@KBFBEHJF@?$AAe?$AAn?$AA?9?$AAA?$AAU@ 00000001800205f0     libucrt:lcidtoname_downlevel.obj
 0002:00005600       ??_C@_1M@MNPLFAAH@?$AAe?$AAs?$AA?9?$AAE?$AAS@ 0000000180020600     libucrt:lcidtoname_downlevel.obj
 0002:00005610       ??_C@_1M@HJOOJFMA@?$AAf?$AAr?$AA?9?$AAC?$AAA@ 0000000180020610     libucrt:lcidtoname_downlevel.obj
 0002:00005620       ??_C@_1BG@JPOFPNAB@?$AAs?$AAr?$AA?9?$AAS?$AAP?$AA?9?$AAC?$AAy?$AAr?$AAl@ 0000000180020620     libucrt:lcidtoname_downlevel.obj
 0002:00005638       ??_C@_1M@LNFOCMOB@?$AAs?$AAe?$AA?9?$AAF?$AAI@ 0000000180020638     libucrt:lcidtoname_downlevel.obj
 0002:00005648       ??_C@_1O@MGJBOAMB@?$AAq?$AAu?$AAz?$AA?9?$AAP?$AAE@ 0000000180020648     libucrt:lcidtoname_downlevel.obj
 0002:00005658       ??_C@_1M@GJINLBOK@?$AAa?$AAr?$AA?9?$AAL?$AAY@ 0000000180020658     libucrt:lcidtoname_downlevel.obj
 0002:00005668       ??_C@_1M@GGMNHJNL@?$AAz?$AAh?$AA?9?$AAS?$AAG@ 0000000180020668     libucrt:lcidtoname_downlevel.obj
 0002:00005678       ??_C@_1M@HOIKODND@?$AAd?$AAe?$AA?9?$AAL?$AAU@ 0000000180020678     libucrt:lcidtoname_downlevel.obj
 0002:00005688       ??_C@_1M@DDOCCGFG@?$AAe?$AAn?$AA?9?$AAC?$AAA@ 0000000180020688     libucrt:lcidtoname_downlevel.obj
 0002:00005698       ??_C@_1M@BNOEMJLF@?$AAe?$AAs?$AA?9?$AAG?$AAT@ 0000000180020698     libucrt:lcidtoname_downlevel.obj
 0002:000056a8       ??_C@_1M@EOGNKEK@?$AAf?$AAr?$AA?9?$AAC?$AAH@ 00000001800206a8     libucrt:lcidtoname_downlevel.obj
 0002:000056b8       ??_C@_1M@FLIDJFHL@?$AAh?$AAr?$AA?9?$AAB?$AAA@ 00000001800206b8     libucrt:lcidtoname_downlevel.obj
 0002:000056c8       ??_C@_1O@FMCELNAJ@?$AAs?$AAm?$AAj?$AA?9?$AAN?$AAO@ 00000001800206c8     libucrt:lcidtoname_downlevel.obj
 0002:000056d8       ??_C@_1M@JHGLJMGJ@?$AAa?$AAr?$AA?9?$AAD?$AAZ@ 00000001800206d8     libucrt:lcidtoname_downlevel.obj
 0002:000056e8       ??_C@_1M@JKKFDCNP@?$AAz?$AAh?$AA?9?$AAM?$AAO@ 00000001800206e8     libucrt:lcidtoname_downlevel.obj
 0002:000056f8       ??_C@_1M@GEEFALPE@?$AAd?$AAe?$AA?9?$AAL?$AAI@ 00000001800206f8     libucrt:lcidtoname_downlevel.obj
 0002:00005708       ??_C@_1M@IGEOFBG@?$AAe?$AAn?$AA?9?$AAN?$AAZ@ 0000000180020708     libucrt:lcidtoname_downlevel.obj
 0002:00005718       ??_C@_1M@KDBONEHP@?$AAe?$AAs?$AA?9?$AAC?$AAR@ 0000000180020718     libucrt:lcidtoname_downlevel.obj
 0002:00005728       ??_C@_1M@FHMDOHNN@?$AAf?$AAr?$AA?9?$AAL?$AAU@ 0000000180020728     libucrt:lcidtoname_downlevel.obj
 0002:00005738       ??_C@_1BG@NFKKMAFG@?$AAb?$AAs?$AA?9?$AAB?$AAA?$AA?9?$AAL?$AAa?$AAt?$AAn@ 0000000180020738     libucrt:lcidtoname_downlevel.obj
 0002:00005750       ??_C@_1O@IMNBEMCI@?$AAs?$AAm?$AAj?$AA?9?$AAS?$AAE@ 0000000180020750     libucrt:lcidtoname_downlevel.obj
 0002:00005760       ??_C@_1M@DHHMBNDP@?$AAa?$AAr?$AA?9?$AAM?$AAA@ 0000000180020760     libucrt:lcidtoname_downlevel.obj
 0002:00005770       ??_C@_1M@BNBLJCGH@?$AAe?$AAn?$AA?9?$AAI?$AAE@ 0000000180020770     libucrt:lcidtoname_downlevel.obj
 0002:00005780       ??_C@_1M@GEPAFMDL@?$AAe?$AAs?$AA?9?$AAP?$AAA@ 0000000180020780     libucrt:lcidtoname_downlevel.obj
 0002:00005790       ??_C@_1M@OJONDMDL@?$AAf?$AAr?$AA?9?$AAM?$AAC@ 0000000180020790     libucrt:lcidtoname_downlevel.obj
 0002:000057a0       ??_C@_1BG@OBCNFJB@?$AAs?$AAr?$AA?9?$AAB?$AAA?$AA?9?$AAL?$AAa?$AAt?$AAn@ 00000001800207a0     libucrt:lcidtoname_downlevel.obj
 0002:000057b8       ??_C@_1O@KEMEEGPO@?$AAs?$AAm?$AAa?$AA?9?$AAN?$AAO@ 00000001800207b8     libucrt:lcidtoname_downlevel.obj
 0002:000057c8       ??_C@_1M@ELMGFODK@?$AAa?$AAr?$AA?9?$AAT?$AAN@ 00000001800207c8     libucrt:lcidtoname_downlevel.obj
 0002:000057d8       ??_C@_1M@BHDLHFAF@?$AAe?$AAn?$AA?9?$AAZ?$AAA@ 00000001800207d8     libucrt:lcidtoname_downlevel.obj
 0002:000057e8       ??_C@_1M@BMGIGLIF@?$AAe?$AAs?$AA?9?$AAD?$AAO@ 00000001800207e8     libucrt:lcidtoname_downlevel.obj
 0002:000057f8       ??_C@_1BG@CMBHIPBE@?$AAs?$AAr?$AA?9?$AAB?$AAA?$AA?9?$AAC?$AAy?$AAr?$AAl@ 00000001800207f8     libucrt:lcidtoname_downlevel.obj
 0002:00005810       ??_C@_1O@HEDBLHNP@?$AAs?$AAm?$AAa?$AA?9?$AAS?$AAE@ 0000000180020810     libucrt:lcidtoname_downlevel.obj
 0002:00005820       ??_C@_1M@DAGCADIM@?$AAa?$AAr?$AA?9?$AAO?$AAM@ 0000000180020820     libucrt:lcidtoname_downlevel.obj
 0002:00005830       ??_C@_1M@FODLMICG@?$AAe?$AAn?$AA?9?$AAJ?$AAM@ 0000000180020830     libucrt:lcidtoname_downlevel.obj
 0002:00005840       ??_C@_1M@DNMLCIHB@?$AAe?$AAs?$AA?9?$AAV?$AAE@ 0000000180020840     libucrt:lcidtoname_downlevel.obj
 0002:00005850       ??_C@_1O@EOKHMKJK@?$AAs?$AAm?$AAs?$AA?9?$AAF?$AAI@ 0000000180020850     libucrt:lcidtoname_downlevel.obj
 0002:00005860       ??_C@_1M@CAFJMKOF@?$AAa?$AAr?$AA?9?$AAY?$AAE@ 0000000180020860     libucrt:lcidtoname_downlevel.obj
 0002:00005870       ??_C@_1M@CBFHIJLI@?$AAe?$AAn?$AA?9?$AAC?$AAB@ 0000000180020870     libucrt:lcidtoname_downlevel.obj
 0002:00005880       ??_C@_1M@BGNFLDN@?$AAe?$AAs?$AA?9?$AAC?$AAO@ 0000000180020880     libucrt:lcidtoname_downlevel.obj
 0002:00005890       ??_C@_1O@JMPHMAMC@?$AAs?$AAm?$AAn?$AA?9?$AAF?$AAI@ 0000000180020890     libucrt:lcidtoname_downlevel.obj
 0002:000058a0       ??_C@_1M@JLANABKE@?$AAa?$AAr?$AA?9?$AAS?$AAY@ 00000001800208a0     libucrt:lcidtoname_downlevel.obj
 0002:000058b0       ??_C@_1M@HPKGCFGN@?$AAe?$AAn?$AA?9?$AAB?$AAZ@ 00000001800208b0     libucrt:lcidtoname_downlevel.obj
 0002:000058c0       ??_C@_1M@OLJCMLGM@?$AAe?$AAs?$AA?9?$AAP?$AAE@ 00000001800208c0     libucrt:lcidtoname_downlevel.obj
 0002:000058d0       ??_C@_1M@MKKGFKLE@?$AAa?$AAr?$AA?9?$AAJ?$AAO@ 00000001800208d0     libucrt:lcidtoname_downlevel.obj
 0002:000058e0       ??_C@_1M@EKPGLDNI@?$AAe?$AAn?$AA?9?$AAT?$AAT@ 00000001800208e0     libucrt:lcidtoname_downlevel.obj
 0002:000058f0       ??_C@_1M@OONGHFHE@?$AAe?$AAs?$AA?9?$AAA?$AAR@ 00000001800208f0     libucrt:lcidtoname_downlevel.obj
 0002:00005900       ??_C@_1M@OOJFGBHE@?$AAa?$AAr?$AA?9?$AAL?$AAB@ 0000000180020900     libucrt:lcidtoname_downlevel.obj
 0002:00005910       ??_C@_1M@GCEJHNEG@?$AAe?$AAn?$AA?9?$AAZ?$AAW@ 0000000180020910     libucrt:lcidtoname_downlevel.obj
 0002:00005920       ??_C@_1M@JNOCAHJI@?$AAe?$AAs?$AA?9?$AAE?$AAC@ 0000000180020920     libucrt:lcidtoname_downlevel.obj
 0002:00005930       ??_C@_1M@JEFHPGGB@?$AAa?$AAr?$AA?9?$AAK?$AAW@ 0000000180020930     libucrt:lcidtoname_downlevel.obj
 0002:00005940       ??_C@_1M@MLKIBJOJ@?$AAe?$AAn?$AA?9?$AAP?$AAH@ 0000000180020940     libucrt:lcidtoname_downlevel.obj
 0002:00005950       ??_C@_1M@BDNIPEND@?$AAe?$AAs?$AA?9?$AAC?$AAL@ 0000000180020950     libucrt:lcidtoname_downlevel.obj
 0002:00005960       ??_C@_1M@MPNMEKBD@?$AAa?$AAr?$AA?9?$AAA?$AAE@ 0000000180020960     libucrt:lcidtoname_downlevel.obj
 0002:00005970       ??_C@_1M@KBJALCPI@?$AAe?$AAs?$AA?9?$AAU?$AAY@ 0000000180020970     libucrt:lcidtoname_downlevel.obj
 0002:00005980       ??_C@_1M@LLCCOAGA@?$AAa?$AAr?$AA?9?$AAB?$AAH@ 0000000180020980     libucrt:lcidtoname_downlevel.obj
 0002:00005990       ??_C@_1M@PBFNCDEL@?$AAe?$AAs?$AA?9?$AAP?$AAY@ 0000000180020990     libucrt:lcidtoname_downlevel.obj
 0002:000059a0       ??_C@_1M@EDGINPNP@?$AAa?$AAr?$AA?9?$AAQ?$AAA@ 00000001800209a0     libucrt:lcidtoname_downlevel.obj
 0002:000059b0       ??_C@_1M@MKDBIIJI@?$AAe?$AAs?$AA?9?$AAB?$AAO@ 00000001800209b0     libucrt:lcidtoname_downlevel.obj
 0002:000059c0       ??_C@_1M@CPKKEBLD@?$AAe?$AAs?$AA?9?$AAS?$AAV@ 00000001800209c0     libucrt:lcidtoname_downlevel.obj
 0002:000059d0       ??_C@_1M@NDBGMMJL@?$AAe?$AAs?$AA?9?$AAH?$AAN@ 00000001800209d0     libucrt:lcidtoname_downlevel.obj
 0002:000059e0       ??_C@_1M@JIJIBHDP@?$AAe?$AAs?$AA?9?$AAN?$AAI@ 00000001800209e0     libucrt:lcidtoname_downlevel.obj
 0002:000059f0       ??_C@_1M@CGFMKEEK@?$AAe?$AAs?$AA?9?$AAP?$AAR@ 00000001800209f0     libucrt:lcidtoname_downlevel.obj
 0002:00005a00       ??_C@_1O@ICJHKIIK@?$AAz?$AAh?$AA?9?$AAC?$AAH?$AAT@ 0000000180020a00     libucrt:lcidtoname_downlevel.obj
 0002:00005a10       ??_C@_15CLNEJCE@?$AAs?$AAr@ 0000000180020a10     libucrt:lcidtoname_downlevel.obj
 0002:00006860       ??_C@_1M@KAHEKEIG@?$AAa?$AAf?$AA?9?$AAz?$AAa@ 0000000180021860     libucrt:lcidtoname_downlevel.obj
 0002:00006870       ??_C@_1M@GIECOABL@?$AAa?$AAr?$AA?9?$AAa?$AAe@ 0000000180021870     libucrt:lcidtoname_downlevel.obj
 0002:00006880       ??_C@_1M@BMLMEKGI@?$AAa?$AAr?$AA?9?$AAb?$AAh@ 0000000180021880     libucrt:lcidtoname_downlevel.obj
 0002:00006890       ??_C@_1M@DAPFDGGB@?$AAa?$AAr?$AA?9?$AAd?$AAz@ 0000000180021890     libucrt:lcidtoname_downlevel.obj
 0002:000068a0       ??_C@_1M@FJNKGKIG@?$AAa?$AAr?$AA?9?$AAe?$AAg@ 00000001800218a0     libucrt:lcidtoname_downlevel.obj
 0002:000068b0       ??_C@_1M@FLGKKCLO@?$AAa?$AAr?$AA?9?$AAi?$AAq@ 00000001800218b0     libucrt:lcidtoname_downlevel.obj
 0002:000068c0       ??_C@_1M@GNDIPALM@?$AAa?$AAr?$AA?9?$AAj?$AAo@ 00000001800218c0     libucrt:lcidtoname_downlevel.obj
 0002:000068d0       ??_C@_1M@DDMJFMGJ@?$AAa?$AAr?$AA?9?$AAk?$AAw@ 00000001800218d0     libucrt:lcidtoname_downlevel.obj
 0002:000068e0       ??_C@_1M@EJALMLHM@?$AAa?$AAr?$AA?9?$AAl?$AAb@ 00000001800218e0     libucrt:lcidtoname_downlevel.obj
 0002:000068f0       ??_C@_1M@MOBDBLOC@?$AAa?$AAr?$AA?9?$AAl?$AAy@ 00000001800218f0     libucrt:lcidtoname_downlevel.obj
 0002:00006900       ??_C@_1M@JAOCLHDH@?$AAa?$AAr?$AA?9?$AAm?$AAa@ 0000000180021900     libucrt:lcidtoname_downlevel.obj
 0002:00006910       ??_C@_1M@JHPMKJIE@?$AAa?$AAr?$AA?9?$AAo?$AAm@ 0000000180021910     libucrt:lcidtoname_downlevel.obj
 0002:00006920       ??_C@_1M@OEPGHFNH@?$AAa?$AAr?$AA?9?$AAq?$AAa@ 0000000180021920     libucrt:lcidtoname_downlevel.obj
 0002:00006930       ??_C@_1M@KJDONENM@?$AAa?$AAr?$AA?9?$AAs?$AAa@ 0000000180021930     libucrt:lcidtoname_downlevel.obj
 0002:00006940       ??_C@_1M@DMJDKLKM@?$AAa?$AAr?$AA?9?$AAs?$AAy@ 0000000180021940     libucrt:lcidtoname_downlevel.obj
 0002:00006950       ??_C@_1M@OMFIPEDC@?$AAa?$AAr?$AA?9?$AAt?$AAn@ 0000000180021950     libucrt:lcidtoname_downlevel.obj
 0002:00006960       ??_C@_1M@IHMHGAON@?$AAa?$AAr?$AA?9?$AAy?$AAe@ 0000000180021960     libucrt:lcidtoname_downlevel.obj
 0002:00006970       ??_C@_1BG@KDCPGJGB@?$AAa?$AAz?$AA?9?$AAa?$AAz?$AA?9?$AAc?$AAy?$AAr?$AAl@ 0000000180021970     libucrt:lcidtoname_downlevel.obj
 0002:00006988       ??_C@_1BG@IBCKDDOE@?$AAa?$AAz?$AA?9?$AAa?$AAz?$AA?9?$AAl?$AAa?$AAt?$AAn@ 0000000180021988     libucrt:lcidtoname_downlevel.obj
 0002:000069a0       ??_C@_1M@EGPFDCPD@?$AAb?$AAe?$AA?9?$AAb?$AAy@ 00000001800219a0     libucrt:lcidtoname_downlevel.obj
 0002:000069b0       ??_C@_1M@PCMGMCGC@?$AAb?$AAg?$AA?9?$AAb?$AAg@ 00000001800219b0     libucrt:lcidtoname_downlevel.obj
 0002:000069c0       ??_C@_1M@BJBMFGOB@?$AAb?$AAn?$AA?9?$AAi?$AAn@ 00000001800219c0     libucrt:lcidtoname_downlevel.obj
 0002:000069d0       ??_C@_1BG@EAKMMACD@?$AAb?$AAs?$AA?9?$AAb?$AAa?$AA?9?$AAl?$AAa?$AAt?$AAn@ 00000001800219d0     libucrt:lcidtoname_downlevel.obj
 0002:000069e8       ??_C@_1M@KGADAODK@?$AAc?$AAa?$AA?9?$AAe?$AAs@ 00000001800219e8     libucrt:lcidtoname_downlevel.obj
 0002:000069f8       ??_C@_1M@COAJPDHI@?$AAc?$AAs?$AA?9?$AAc?$AAz@ 00000001800219f8     libucrt:lcidtoname_downlevel.obj
 0002:00006a08       ??_C@_1M@DHBHFONH@?$AAc?$AAy?$AA?9?$AAg?$AAb@ 0000000180021a08     libucrt:lcidtoname_downlevel.obj
 0002:00006a18       ??_C@_1M@IMGKELGA@?$AAd?$AAa?$AA?9?$AAd?$AAk@ 0000000180021a18     libucrt:lcidtoname_downlevel.obj
 0002:00006a28       ??_C@_1M@NNDGDNGA@?$AAd?$AAe?$AA?9?$AAa?$AAt@ 0000000180021a28     libucrt:lcidtoname_downlevel.obj
 0002:00006a38       ??_C@_1M@IKDBHEEM@?$AAd?$AAe?$AA?9?$AAc?$AAh@ 0000000180021a38     libucrt:lcidtoname_downlevel.obj
 0002:00006a48       ??_C@_1M@GFFOJMCJ@?$AAd?$AAe?$AA?9?$AAd?$AAe@ 0000000180021a48     libucrt:lcidtoname_downlevel.obj
 0002:00006a58       ??_C@_1M@MDNLKBPM@?$AAd?$AAe?$AA?9?$AAl?$AAi@ 0000000180021a58     libucrt:lcidtoname_downlevel.obj
 0002:00006a68       ??_C@_1M@NJBEEJNL@?$AAd?$AAe?$AA?9?$AAl?$AAu@ 0000000180021a68     libucrt:lcidtoname_downlevel.obj
 0002:00006a78       ??_C@_1O@GNNELBAP@?$AAd?$AAi?$AAv?$AA?9?$AAm?$AAv@ 0000000180021a78     libucrt:lcidtoname_downlevel.obj
 0002:00006a88       ??_C@_1M@EJLEOGAE@?$AAe?$AAl?$AA?9?$AAg?$AAr@ 0000000180021a88     libucrt:lcidtoname_downlevel.obj
 0002:00006a98       ??_C@_1M@GMPONJN@?$AAe?$AAn?$AA?9?$AAa?$AAu@ 0000000180021a98     libucrt:lcidtoname_downlevel.obj
 0002:00006aa8       ??_C@_1M@NIDIIPGF@?$AAe?$AAn?$AA?9?$AAb?$AAz@ 0000000180021aa8     libucrt:lcidtoname_downlevel.obj
 0002:00006ab8       ??_C@_1M@JEHMIMFO@?$AAe?$AAn?$AA?9?$AAc?$AAa@ 0000000180021ab8     libucrt:lcidtoname_downlevel.obj
 0002:00006ac8       ??_C@_1M@IGMJCDLA@?$AAe?$AAn?$AA?9?$AAc?$AAb@ 0000000180021ac8     libucrt:lcidtoname_downlevel.obj
 0002:00006ad8       ??_C@_1M@BNFIGBKG@?$AAe?$AAn?$AA?9?$AAg?$AAb@ 0000000180021ad8     libucrt:lcidtoname_downlevel.obj
 0002:00006ae8       ??_C@_1M@LKIFDIGP@?$AAe?$AAn?$AA?9?$AAi?$AAe@ 0000000180021ae8     libucrt:lcidtoname_downlevel.obj
 0002:00006af8       ??_C@_1M@PJKFGCCO@?$AAe?$AAn?$AA?9?$AAj?$AAm@ 0000000180021af8     libucrt:lcidtoname_downlevel.obj
 0002:00006b08       ??_C@_1M@KPPKEPBO@?$AAe?$AAn?$AA?9?$AAn?$AAz@ 0000000180021b08     libucrt:lcidtoname_downlevel.obj
 0002:00006b18       ??_C@_1M@GMDGLDOB@?$AAe?$AAn?$AA?9?$AAp?$AAh@ 0000000180021b18     libucrt:lcidtoname_downlevel.obj
 0002:00006b28       ??_C@_1M@ONGIBJNA@?$AAe?$AAn?$AA?9?$AAt?$AAt@ 0000000180021b28     libucrt:lcidtoname_downlevel.obj
 0002:00006b38       ??_C@_1M@LLODPCMM@?$AAe?$AAn?$AA?9?$AAu?$AAs@ 0000000180021b38     libucrt:lcidtoname_downlevel.obj
 0002:00006b48       ??_C@_1M@LAKFNPAN@?$AAe?$AAn?$AA?9?$AAz?$AAa@ 0000000180021b48     libucrt:lcidtoname_downlevel.obj
 0002:00006b58       ??_C@_1M@MFNHNHEO@?$AAe?$AAn?$AA?9?$AAz?$AAw@ 0000000180021b58     libucrt:lcidtoname_downlevel.obj
 0002:00006b68       ??_C@_1M@EJEINPHM@?$AAe?$AAs?$AA?9?$AAa?$AAr@ 0000000180021b68     libucrt:lcidtoname_downlevel.obj
 0002:00006b78       ??_C@_1M@GNKPCCJA@?$AAe?$AAs?$AA?9?$AAb?$AAo@ 0000000180021b78     libucrt:lcidtoname_downlevel.obj
 0002:00006b88       ??_C@_1M@LEEGFONL@?$AAe?$AAs?$AA?9?$AAc?$AAl@ 0000000180021b88     libucrt:lcidtoname_downlevel.obj
 0002:00006b98       ??_C@_1M@KGPDPBDF@?$AAe?$AAs?$AA?9?$AAc?$AAo@ 0000000180021b98     libucrt:lcidtoname_downlevel.obj
 0002:00006ba8       ??_C@_1M@EIAHOHH@?$AAe?$AAs?$AA?9?$AAc?$AAr@ 0000000180021ba8     libucrt:lcidtoname_downlevel.obj
 0002:00006bb8       ??_C@_1M@LLPGMBIN@?$AAe?$AAs?$AA?9?$AAd?$AAo@ 0000000180021bb8     libucrt:lcidtoname_downlevel.obj
 0002:00006bc8       ??_C@_1M@DKHMKNJA@?$AAe?$AAs?$AA?9?$AAe?$AAc@ 0000000180021bc8     libucrt:lcidtoname_downlevel.obj
 0002:00006bd8       ??_C@_1M@GKGFPKAP@?$AAe?$AAs?$AA?9?$AAe?$AAs@ 0000000180021bd8     libucrt:lcidtoname_downlevel.obj
 0002:00006be8       ??_C@_1M@LKHKGDLN@?$AAe?$AAs?$AA?9?$AAg?$AAt@ 0000000180021be8     libucrt:lcidtoname_downlevel.obj
 0002:00006bf8       ??_C@_1M@HEIIGGJD@?$AAe?$AAs?$AA?9?$AAh?$AAn@ 0000000180021bf8     libucrt:lcidtoname_downlevel.obj
 0002:00006c08       ??_C@_1M@FBDHPPGD@?$AAe?$AAs?$AA?9?$AAm?$AAx@ 0000000180021c08     libucrt:lcidtoname_downlevel.obj
 0002:00006c18       ??_C@_1M@DPAGLNDH@?$AAe?$AAs?$AA?9?$AAn?$AAi@ 0000000180021c18     libucrt:lcidtoname_downlevel.obj
 0002:00006c28       ??_C@_1M@MDGOPGDD@?$AAe?$AAs?$AA?9?$AAp?$AAa@ 0000000180021c28     libucrt:lcidtoname_downlevel.obj
 0002:00006c38       ??_C@_1M@EMAMGBGE@?$AAe?$AAs?$AA?9?$AAp?$AAe@ 0000000180021c38     libucrt:lcidtoname_downlevel.obj
 0002:00006c48       ??_C@_1M@IBMCAOEC@?$AAe?$AAs?$AA?9?$AAp?$AAr@ 0000000180021c48     libucrt:lcidtoname_downlevel.obj
 0002:00006c58       ??_C@_1M@FGMDIJED@?$AAe?$AAs?$AA?9?$AAp?$AAy@ 0000000180021c58     libucrt:lcidtoname_downlevel.obj
 0002:00006c68       ??_C@_1M@IIDEOLLL@?$AAe?$AAs?$AA?9?$AAs?$AAv@ 0000000180021c68     libucrt:lcidtoname_downlevel.obj
 0002:00006c78       ??_C@_1M@GAOBIPA@?$AAe?$AAs?$AA?9?$AAu?$AAy@ 0000000180021c78     libucrt:lcidtoname_downlevel.obj
 0002:00006c88       ??_C@_1M@JKFFICHJ@?$AAe?$AAs?$AA?9?$AAv?$AAe@ 0000000180021c88     libucrt:lcidtoname_downlevel.obj
 0002:00006c98       ??_C@_1M@PNMLOJDF@?$AAe?$AAt?$AA?9?$AAe?$AAe@ 0000000180021c98     libucrt:lcidtoname_downlevel.obj
 0002:00006ca8       ??_C@_1M@GHHLIKEI@?$AAe?$AAu?$AA?9?$AAe?$AAs@ 0000000180021ca8     libucrt:lcidtoname_downlevel.obj
 0002:00006cb8       ??_C@_1M@PBNONODE@?$AAf?$AAa?$AA?9?$AAi?$AAr@ 0000000180021cb8     libucrt:lcidtoname_downlevel.obj
 0002:00006cc8       ??_C@_1M@JEEHPMIL@?$AAf?$AAi?$AA?9?$AAf?$AAi@ 0000000180021cc8     libucrt:lcidtoname_downlevel.obj
 0002:00006cd8       ??_C@_1M@LMDCNDBA@?$AAf?$AAo?$AA?9?$AAf?$AAo@ 0000000180021cd8     libucrt:lcidtoname_downlevel.obj
 0002:00006ce8       ??_C@_1M@JKEOHLDK@?$AAf?$AAr?$AA?9?$AAb?$AAe@ 0000000180021ce8     libucrt:lcidtoname_downlevel.obj
 0002:00006cf8       ??_C@_1M@NOHADPMI@?$AAf?$AAr?$AA?9?$AAc?$AAa@ 0000000180021cf8     libucrt:lcidtoname_downlevel.obj
 0002:00006d08       ??_C@_1M@KDHIHAEC@?$AAf?$AAr?$AA?9?$AAc?$AAh@ 0000000180021d08     libucrt:lcidtoname_downlevel.obj
 0002:00006d18       ??_C@_1M@MMBBFGAK@?$AAf?$AAr?$AA?9?$AAf?$AAr@ 0000000180021d18     libucrt:lcidtoname_downlevel.obj
 0002:00006d28       ??_C@_1M@PAFNENNF@?$AAf?$AAr?$AA?9?$AAl?$AAu@ 0000000180021d28     libucrt:lcidtoname_downlevel.obj
 0002:00006d38       ??_C@_1M@EOHDJGDD@?$AAf?$AAr?$AA?9?$AAm?$AAc@ 0000000180021d38     libucrt:lcidtoname_downlevel.obj
 0002:00006d48       ??_C@_1M@FAPLLOPF@?$AAg?$AAl?$AA?9?$AAe?$AAs@ 0000000180021d48     libucrt:lcidtoname_downlevel.obj
 0002:00006d58       ??_C@_1M@FOPBFLOO@?$AAg?$AAu?$AA?9?$AAi?$AAn@ 0000000180021d58     libucrt:lcidtoname_downlevel.obj
 0002:00006d68       ??_C@_1M@KBMCINPM@?$AAh?$AAe?$AA?9?$AAi?$AAl@ 0000000180021d68     libucrt:lcidtoname_downlevel.obj
 0002:00006d78       ??_C@_1M@BBPHKFPJ@?$AAh?$AAi?$AA?9?$AAi?$AAn@ 0000000180021d78     libucrt:lcidtoname_downlevel.obj
 0002:00006d88       ??_C@_1M@PMBNDPHD@?$AAh?$AAr?$AA?9?$AAb?$AAa@ 0000000180021d88     libucrt:lcidtoname_downlevel.obj
 0002:00006d98       ??_C@_1M@BPCKOEGE@?$AAh?$AAr?$AA?9?$AAh?$AAr@ 0000000180021d98     libucrt:lcidtoname_downlevel.obj
 0002:00006da8       ??_C@_1M@GACBMHKE@?$AAh?$AAu?$AA?9?$AAh?$AAu@ 0000000180021da8     libucrt:lcidtoname_downlevel.obj
 0002:00006db8       ??_C@_1M@MILPAJJC@?$AAh?$AAy?$AA?9?$AAa?$AAm@ 0000000180021db8     libucrt:lcidtoname_downlevel.obj
 0002:00006dc8       ??_C@_1M@BABBICEC@?$AAi?$AAd?$AA?9?$AAi?$AAd@ 0000000180021dc8     libucrt:lcidtoname_downlevel.obj
 0002:00006dd8       ??_C@_1M@BIKNHHPF@?$AAi?$AAs?$AA?9?$AAi?$AAs@ 0000000180021dd8     libucrt:lcidtoname_downlevel.obj
 0002:00006de8       ??_C@_1M@NMPCJPHE@?$AAi?$AAt?$AA?9?$AAc?$AAh@ 0000000180021de8     libucrt:lcidtoname_downlevel.obj
 0002:00006df8       ??_C@_1M@GHKGFEDF@?$AAi?$AAt?$AA?9?$AAi?$AAt@ 0000000180021df8     libucrt:lcidtoname_downlevel.obj
 0002:00006e08       ??_C@_1M@NIEJCJJA@?$AAj?$AAa?$AA?9?$AAj?$AAp@ 0000000180021e08     libucrt:lcidtoname_downlevel.obj
 0002:00006e18       ??_C@_1M@JILFNBIM@?$AAk?$AAa?$AA?9?$AAg?$AAe@ 0000000180021e18     libucrt:lcidtoname_downlevel.obj
 0002:00006e28       ??_C@_1M@PACPMGPH@?$AAk?$AAk?$AA?9?$AAk?$AAz@ 0000000180021e28     libucrt:lcidtoname_downlevel.obj
 0002:00006e38       ??_C@_1M@IELFGMHA@?$AAk?$AAn?$AA?9?$AAi?$AAn@ 0000000180021e38     libucrt:lcidtoname_downlevel.obj
 0002:00006e48       ??_C@_1O@IBBJHCH@?$AAk?$AAo?$AAk?$AA?9?$AAi?$AAn@ 0000000180021e48     libucrt:lcidtoname_downlevel.obj
 0002:00006e58       ??_C@_1M@DMHAEOGC@?$AAk?$AAo?$AA?9?$AAk?$AAr@ 0000000180021e58     libucrt:lcidtoname_downlevel.obj
 0002:00006e68       ??_C@_1M@HBAHBIGA@?$AAk?$AAy?$AA?9?$AAk?$AAg@ 0000000180021e68     libucrt:lcidtoname_downlevel.obj
 0002:00006e78       ??_C@_1M@KPMILCJG@?$AAl?$AAt?$AA?9?$AAl?$AAt@ 0000000180021e78     libucrt:lcidtoname_downlevel.obj
 0002:00006e88       ??_C@_1M@BDEKKCA@?$AAl?$AAv?$AA?9?$AAl?$AAv@ 0000000180021e88     libucrt:lcidtoname_downlevel.obj
 0002:00006e98       ??_C@_1M@ELCKCCJJ@?$AAm?$AAi?$AA?9?$AAn?$AAz@ 0000000180021e98     libucrt:lcidtoname_downlevel.obj
 0002:00006ea8       ??_C@_1M@CBOOLAPA@?$AAm?$AAk?$AA?9?$AAm?$AAk@ 0000000180021ea8     libucrt:lcidtoname_downlevel.obj
 0002:00006eb8       ??_C@_1M@GPHNBJKN@?$AAm?$AAl?$AA?9?$AAi?$AAn@ 0000000180021eb8     libucrt:lcidtoname_downlevel.obj
 0002:00006ec8       ??_C@_1M@PABJILIG@?$AAm?$AAn?$AA?9?$AAm?$AAn@ 0000000180021ec8     libucrt:lcidtoname_downlevel.obj
 0002:00006ed8       ??_C@_1M@FGBKKIPG@?$AAm?$AAr?$AA?9?$AAi?$AAn@ 0000000180021ed8     libucrt:lcidtoname_downlevel.obj
 0002:00006ee8       ??_C@_1M@NDBPDDAL@?$AAm?$AAs?$AA?9?$AAb?$AAn@ 0000000180021ee8     libucrt:lcidtoname_downlevel.obj
 0002:00006ef8       ??_C@_1M@OPIHOOPI@?$AAm?$AAs?$AA?9?$AAm?$AAy@ 0000000180021ef8     libucrt:lcidtoname_downlevel.obj
 0002:00006f08       ??_C@_1M@PPDBCNFM@?$AAm?$AAt?$AA?9?$AAm?$AAt@ 0000000180021f08     libucrt:lcidtoname_downlevel.obj
 0002:00006f18       ??_C@_1M@KDJDKMDD@?$AAn?$AAb?$AA?9?$AAn?$AAo@ 0000000180021f18     libucrt:lcidtoname_downlevel.obj
 0002:00006f28       ??_C@_1M@KFCFLMJP@?$AAn?$AAl?$AA?9?$AAb?$AAe@ 0000000180021f28     libucrt:lcidtoname_downlevel.obj
 0002:00006f38       ??_C@_1M@KPOPDDGO@?$AAn?$AAl?$AA?9?$AAn?$AAl@ 0000000180021f38     libucrt:lcidtoname_downlevel.obj
 0002:00006f48       ??_C@_1M@LJKPEMLN@?$AAn?$AAn?$AA?9?$AAn?$AAo@ 0000000180021f48     libucrt:lcidtoname_downlevel.obj
 0002:00006f58       ??_C@_1M@BDGHHBFL@?$AAn?$AAs?$AA?9?$AAz?$AAa@ 0000000180021f58     libucrt:lcidtoname_downlevel.obj
 0002:00006f68       ??_C@_1M@IDEHOAP@?$AAp?$AAa?$AA?9?$AAi?$AAn@ 0000000180021f68     libucrt:lcidtoname_downlevel.obj
 0002:00006f78       ??_C@_1M@HDBKGOGH@?$AAp?$AAl?$AA?9?$AAp?$AAl@ 0000000180021f78     libucrt:lcidtoname_downlevel.obj
 0002:00006f88       ??_C@_1M@LJLLCMEH@?$AAp?$AAt?$AA?9?$AAb?$AAr@ 0000000180021f88     libucrt:lcidtoname_downlevel.obj
 0002:00006f98       ??_C@_1M@NCMONAAL@?$AAp?$AAt?$AA?9?$AAp?$AAt@ 0000000180021f98     libucrt:lcidtoname_downlevel.obj
 0002:00006fa8       ??_C@_1O@EAKMAJDN@?$AAq?$AAu?$AAz?$AA?9?$AAb?$AAo@ 0000000180021fa8     libucrt:lcidtoname_downlevel.obj
 0002:00006fb8       ??_C@_1O@BHHPIGDN@?$AAq?$AAu?$AAz?$AA?9?$AAe?$AAc@ 0000000180021fb8     libucrt:lcidtoname_downlevel.obj
 0002:00006fc8       ??_C@_1O@GBAPEKMJ@?$AAq?$AAu?$AAz?$AA?9?$AAp?$AAe@ 0000000180021fc8     libucrt:lcidtoname_downlevel.obj
 0002:00006fd8       ??_C@_1M@CLGLEFBO@?$AAr?$AAo?$AA?9?$AAr?$AAo@ 0000000180021fd8     libucrt:lcidtoname_downlevel.obj
 0002:00006fe8       ??_C@_1M@CEEDODME@?$AAr?$AAu?$AA?9?$AAr?$AAu@ 0000000180021fe8     libucrt:lcidtoname_downlevel.obj
 0002:00006ff8       ??_C@_1M@HPKKKMPP@?$AAs?$AAa?$AA?9?$AAi?$AAn@ 0000000180021ff8     libucrt:lcidtoname_downlevel.obj
 0002:00007008       ??_C@_1M@BKMAIGOJ@?$AAs?$AAe?$AA?9?$AAf?$AAi@ 0000000180022008     libucrt:lcidtoname_downlevel.obj
 0002:00007018       ??_C@_1M@NDPIFLFI@?$AAs?$AAe?$AA?9?$AAn?$AAo@ 0000000180022018     libucrt:lcidtoname_downlevel.obj
 0002:00007028       ??_C@_1M@DANKKHJ@?$AAs?$AAe?$AA?9?$AAs?$AAe@ 0000000180022028     libucrt:lcidtoname_downlevel.obj
 0002:00007038       ??_C@_1M@PNBLONPJ@?$AAs?$AAk?$AA?9?$AAs?$AAk@ 0000000180022038     libucrt:lcidtoname_downlevel.obj
 0002:00007048       ??_C@_1M@LFMODOAL@?$AAs?$AAl?$AA?9?$AAs?$AAi@ 0000000180022048     libucrt:lcidtoname_downlevel.obj
 0002:00007058       ??_C@_1O@DFKOMPG@?$AAs?$AAm?$AAa?$AA?9?$AAn?$AAo@ 0000000180022058     libucrt:lcidtoname_downlevel.obj
 0002:00007068       ??_C@_1O@NDKPBNNH@?$AAs?$AAm?$AAa?$AA?9?$AAs?$AAe@ 0000000180022068     libucrt:lcidtoname_downlevel.obj
 0002:00007078       ??_C@_1O@PLLKBHAB@?$AAs?$AAm?$AAj?$AA?9?$AAn?$AAo@ 0000000180022078     libucrt:lcidtoname_downlevel.obj
 0002:00007088       ??_C@_1O@CLEPOGCA@?$AAs?$AAm?$AAj?$AA?9?$AAs?$AAe@ 0000000180022088     libucrt:lcidtoname_downlevel.obj
 0002:00007098       ??_C@_1O@DLGJGKMK@?$AAs?$AAm?$AAn?$AA?9?$AAf?$AAi@ 0000000180022098     libucrt:lcidtoname_downlevel.obj
 0002:000070a8       ??_C@_1O@OJDJGAJC@?$AAs?$AAm?$AAs?$AA?9?$AAf?$AAi@ 00000001800220a8     libucrt:lcidtoname_downlevel.obj
 0002:000070b8       ??_C@_1M@BOFOGHPB@?$AAs?$AAq?$AA?9?$AAa?$AAl@ 00000001800220b8     libucrt:lcidtoname_downlevel.obj
 0002:000070c8       ??_C@_1BG@LJBBIPGB@?$AAs?$AAr?$AA?9?$AAb?$AAa?$AA?9?$AAc?$AAy?$AAr?$AAl@ 00000001800220c8     libucrt:lcidtoname_downlevel.obj
 0002:000070e0       ??_C@_1BG@JLBENFOE@?$AAs?$AAr?$AA?9?$AAb?$AAa?$AA?9?$AAl?$AAa?$AAt?$AAn@ 00000001800220e0     libucrt:lcidtoname_downlevel.obj
 0002:000070f8       ??_C@_1BG@KODPNHE@?$AAs?$AAr?$AA?9?$AAs?$AAp?$AA?9?$AAc?$AAy?$AAr?$AAl@ 00000001800220f8     libucrt:lcidtoname_downlevel.obj
 0002:00007110       ??_C@_1BG@CIOGKHPB@?$AAs?$AAr?$AA?9?$AAs?$AAp?$AA?9?$AAl?$AAa?$AAt?$AAn@ 0000000180022110     libucrt:lcidtoname_downlevel.obj
 0002:00007128       ??_C@_1M@NGFJLMAC@?$AAs?$AAv?$AA?9?$AAf?$AAi@ 0000000180022128     libucrt:lcidtoname_downlevel.obj
 0002:00007138       ??_C@_1M@MPJEJAJC@?$AAs?$AAv?$AA?9?$AAs?$AAe@ 0000000180022138     libucrt:lcidtoname_downlevel.obj
 0002:00007148       ??_C@_1M@MPNDHLFK@?$AAs?$AAw?$AA?9?$AAk?$AAe@ 0000000180022148     libucrt:lcidtoname_downlevel.obj
 0002:00007158       ??_C@_1O@KOHBJJI@?$AAs?$AAy?$AAr?$AA?9?$AAs?$AAy@ 0000000180022158     libucrt:lcidtoname_downlevel.obj
 0002:00007168       ??_C@_1M@LDCEFHA@?$AAt?$AAa?$AA?9?$AAi?$AAn@ 0000000180022168     libucrt:lcidtoname_downlevel.obj
 0002:00007178       ??_C@_1M@CNJOFAK@?$AAt?$AAe?$AA?9?$AAi?$AAn@ 0000000180022178     libucrt:lcidtoname_downlevel.obj
 0002:00007188       ??_C@_1M@GNAECACD@?$AAt?$AAh?$AA?9?$AAt?$AAh@ 0000000180022188     libucrt:lcidtoname_downlevel.obj
 0002:00007198       ??_C@_1M@CHBIHOJO@?$AAt?$AAn?$AA?9?$AAz?$AAa@ 0000000180022198     libucrt:lcidtoname_downlevel.obj
 0002:000071a8       ??_C@_1M@GCCMIGPJ@?$AAt?$AAr?$AA?9?$AAt?$AAr@ 00000001800221a8     libucrt:lcidtoname_downlevel.obj
 0002:000071b8       ??_C@_1M@CELMCNBK@?$AAt?$AAt?$AA?9?$AAr?$AAu@ 00000001800221b8     libucrt:lcidtoname_downlevel.obj
 0002:000071c8       ??_C@_1M@KLMCELGA@?$AAu?$AAk?$AA?9?$AAu?$AAa@ 00000001800221c8     libucrt:lcidtoname_downlevel.obj
 0002:000071d8       ??_C@_1M@EPAJJAJF@?$AAu?$AAr?$AA?9?$AAp?$AAk@ 00000001800221d8     libucrt:lcidtoname_downlevel.obj
 0002:000071e8       ??_C@_1BG@GEGPMCDJ@?$AAu?$AAz?$AA?9?$AAu?$AAz?$AA?9?$AAc?$AAy?$AAr?$AAl@ 00000001800221e8     libucrt:lcidtoname_downlevel.obj
 0002:00007200       ??_C@_1BG@EGGKJILM@?$AAu?$AAz?$AA?9?$AAu?$AAz?$AA?9?$AAl?$AAa?$AAt?$AAn@ 0000000180022200     libucrt:lcidtoname_downlevel.obj
 0002:00007218       ??_C@_1M@GFOCLFF@?$AAv?$AAi?$AA?9?$AAv?$AAn@ 0000000180022218     libucrt:lcidtoname_downlevel.obj
 0002:00007228       ??_C@_1M@CPAMEDFI@?$AAx?$AAh?$AA?9?$AAz?$AAa@ 0000000180022228     libucrt:lcidtoname_downlevel.obj
 0002:00007238       ??_C@_1O@EBKIFIGN@?$AAz?$AAh?$AA?9?$AAc?$AAh?$AAs@ 0000000180022238     libucrt:lcidtoname_downlevel.obj
 0002:00007248       ??_C@_1O@NMHPGANE@?$AAz?$AAh?$AA?9?$AAc?$AAh?$AAt@ 0000000180022248     libucrt:lcidtoname_downlevel.obj
 0002:00007258       ??_C@_1M@LPINJOMC@?$AAz?$AAh?$AA?9?$AAc?$AAn@ 0000000180022258     libucrt:lcidtoname_downlevel.obj
 0002:00007268       ??_C@_1M@OCJEJODD@?$AAz?$AAh?$AA?9?$AAh?$AAk@ 0000000180022268     libucrt:lcidtoname_downlevel.obj
 0002:00007278       ??_C@_1M@DNDLJINH@?$AAz?$AAh?$AA?9?$AAm?$AAo@ 0000000180022278     libucrt:lcidtoname_downlevel.obj
 0002:00007288       ??_C@_1M@MBFDNDND@?$AAz?$AAh?$AA?9?$AAs?$AAg@ 0000000180022288     libucrt:lcidtoname_downlevel.obj
 0002:00007298       ??_C@_1M@IMEPLEPE@?$AAz?$AAh?$AA?9?$AAt?$AAw@ 0000000180022298     libucrt:lcidtoname_downlevel.obj
 0002:000072a8       ??_C@_1M@BBGHNHJP@?$AAz?$AAu?$AA?9?$AAz?$AAa@ 00000001800222a8     libucrt:lcidtoname_downlevel.obj
 0002:000072b8       __real@3ff0000000000000    00000001800222b8     libucrt:ceil.obj
 0002:00007510       __log10_256_lead           0000000180022510     libucrt:log10_256_lead_tail_table.obj
 0002:00007d20       __log10_256_tail           0000000180022d20     libucrt:log10_256_lead_tail_table.obj
 0002:00008530       __log_F_inv_qword          0000000180023530     libucrt:log_f_inv_qword_table.obj
 0002:00008d40       ??_C@_05HGHHAHAP@log10@    0000000180023d40     libucrt:log_special.obj
 0002:00008d48       ??_C@_1BA@BALFACEM@?$AAC?$AAO?$AAN?$AAO?$AAU?$AAT?$AA$@ 0000000180023d48     libucrt:initcon.obj
 0002:00008d70       ??_C@_1BK@DBDEIDLH@?$AAK?$AAE?$AAR?$AAN?$AAE?$AAL?$AA3?$AA2?$AA?4?$AAD?$AAL?$AAL@ 0000000180023d70     DelayImp:delayhlp.obj
 0002:00008d90       ??_C@_0BI@OMNLIJDB@AcquireSRWLockExclusive@ 0000000180023d90     DelayImp:delayhlp.obj
 0002:00008da8       ??_C@_0BI@HMIEPCNJ@ReleaseSRWLockExclusive@ 0000000180023da8     DelayImp:delayhlp.obj
 0002:00008dc0       __pfnDliFailureHook2       0000000180023dc0     DelayImp:delayhk1.obj
 0002:00008dd0       _load_config_used          0000000180023dd0     LIBCMT:loadcfg.obj
 0002:00008f00       ??_C@_1GE@NOIDHEF@?$AAD?$AA?3?$AA?2?$AAD?$AAe?$AAs?$AAk?$AAt?$AAo?$AAp?$AA?2?$AAF?$AAi?$AAl?$AAe@ 0000000180023f00     binding.obj
 0002:00008f70       ??_C@_1GA@PFOOBIAG@?$AAl?$AAe?$AAn?$AAg?$AAt?$AAh?$AA?5?$AA?$DM?$AA?$DN?$AA?5?$AAi?$AAm?$AAp?$AA?3?$AA?3@ 0000000180023f70     binding.obj
 0002:00008fd0       ??_C@_0CC@DPJFAJAC@address?3?5Buffer?5instance?5expect@ 0000000180023fd0     binding.obj
 0002:00008ff8       ??_C@_0CF@CDOAPIAH@hexAddress?3?5Buffer?5instance?5exp@ 0000000180023ff8     binding.obj
 0002:00009020       ??_C@_02BBAHNLBA@?$CFp@    0000000180024020     binding.obj
 0002:00009028       ??_C@_0CB@MEIKLGAN@isNull?3?5Buffer?5instance?5expecte@ 0000000180024028     binding.obj
 0002:0000904c       ??_C@_02PEDAOJAJ@LE@       000000018002404c     binding.obj
 0002:00009050       ??_C@_0CF@PNPHGGIN@readObject?3?5Buffer?5instance?5exp@ 0000000180024050     binding.obj
 0002:00009078       ??_C@_0CK@COMINFKC@readObject?3?5Cannot?5read?5from?5NU@ 0000000180024078     binding.obj
 0002:000090a8       ??_C@_0CG@INPFBDFJ@writeObject?3?5Buffer?5instance?5ex@ 00000001800240a8     binding.obj
 0002:000090d0       ??_C@_0DI@KMJOADMP@readPointer?3?5Buffer?5instance?5ex@ 00000001800240d0     binding.obj
 0002:00009108       ??_C@_0CL@KBOPJBLG@readPointer?3?5Cannot?5read?5from?5N@ 0000000180024108     binding.obj
 0002:00009138       ??_C@_0DJ@KHGFNHCO@writePointer?3?5Buffer?5instance?5e@ 0000000180024138     binding.obj
 0002:00009178       ??_C@_0DJ@LABDIJFL@writePointer?3?5Buffer?5instance?5e@ 0000000180024178     binding.obj
 0002:000091b8       ??_C@_0CE@IOPFPGLB@readInt64?3?5Buffer?5instance?5expe@ 00000001800241b8     binding.obj
 0002:000091e0       ??_C@_0CJ@PAMPJPNK@readInt64?3?5Cannot?5read?5from?5NUL@ 00000001800241e0     binding.obj
 0002:0000920c       ??_C@_04BFAHMMK@?$CFlld@   000000018002420c     binding.obj
 0002:00009218       ??_C@_0CF@OGHEKNLE@writeInt64?3?5Buffer?5instance?5exp@ 0000000180024218     binding.obj
 0002:00009240       ??_C@_0CP@NCIILIC@writeInt64?3?5no?5digits?5we?5found?5@ 0000000180024240     binding.obj
 0002:00009270       ??_C@_0DG@JDPEOKAB@writeInt64?3?5input?5String?5numeri@ 0000000180024270     binding.obj
 0002:000092a8       ??_C@_0P@MKKCJDMD@writeInt64?3?5?$CFs@ 00000001800242a8     binding.obj
 0002:000092b8       ??_C@_0DA@JEKNBHFK@writeInt64?3?5Number?1String?564?9bi@ 00000001800242b8     binding.obj
 0002:000092e8       ??_C@_0CF@OLPJBHBA@readUInt64?3?5Buffer?5instance?5exp@ 00000001800242e8     binding.obj
 0002:00009310       ??_C@_0CK@MCNLGJCH@readUInt64?3?5Cannot?5read?5from?5NU@ 0000000180024310     binding.obj
 0002:0000933c       ??_C@_04FCIJFPNK@?$CFllu@  000000018002433c     binding.obj
 0002:00009348       ??_C@_0CG@JLPLGCME@writeUInt64?3?5Buffer?5instance?5ex@ 0000000180024348     binding.obj
 0002:00009370       ??_C@_0DA@JLLLOEBO@writeUInt64?3?5no?5digits?5we?5found@ 0000000180024370     binding.obj
 0002:000093a0       ??_C@_0DH@EMLDKIHO@writeUInt64?3?5input?5String?5numer@ 00000001800243a0     binding.obj
 0002:000093d8       ??_C@_0BA@IFKEAFDM@writeUInt64?3?5?$CFs@ 00000001800243d8     binding.obj
 0002:000093e8       ??_C@_0DB@GNICFLFK@writeUInt64?3?5Number?1String?564?9b@ 00000001800243e8     binding.obj
 0002:00009420       ??_C@_0CG@ELIKEPGN@readCString?3?5Buffer?5instance?5ex@ 0000000180024420     binding.obj
 0002:00009448       ??_C@_0CL@DFJAAAPE@readCString?3?5Cannot?5read?5from?5N@ 0000000180024448     binding.obj
 0002:00009478       ??_C@_0CG@GJJKDCPC@reinterpret?3?5Buffer?5instance?5ex@ 0000000180024478     binding.obj
 0002:000094a0       ??_C@_0DC@FEMIIEMO@reinterpret?3?5Cannot?5reinterpret@ 00000001800244a0     binding.obj
 0002:000094d8       ??_C@_0DA@GHACKNLG@reinterpretUntilZeros?3?5Buffer?5i@ 00000001800244d8     binding.obj
 0002:00009508       ??_C@_0DM@DHPMBOFM@reinterpretUntilZeros?3?5Cannot?5r@ 0000000180024508     binding.obj
 0002:00009544       ??_C@_04DCGBOBJJ@int8@     0000000180024544     binding.obj
 0002:0000954c       ??_C@_05BOGOCLFF@uint8@    000000018002454c     binding.obj
 0002:00009554       ??_C@_05PCMOAPL@int16@     0000000180024554     binding.obj
 0002:0000955c       ??_C@_06JNNCGBKK@uint16@   000000018002455c     binding.obj
 0002:00009564       ??_C@_05GIMEPBJB@int32@    0000000180024564     binding.obj
 0002:0000956c       ??_C@_06PKDKHAMA@uint32@   000000018002456c     binding.obj
 0002:00009574       ??_C@_05DIFFJEPM@int64@    0000000180024574     binding.obj
 0002:0000957c       ??_C@_06KKKLBFKN@uint64@   000000018002457c     binding.obj
 0002:00009584       ??_C@_05KNFBNCOH@float@    0000000180024584     binding.obj
 0002:0000958c       ??_C@_06BNJCAIGJ@double@   000000018002458c     binding.obj
 0002:00009594       ??_C@_04DDKJGDCM@bool@     0000000180024594     binding.obj
 0002:0000959c       ??_C@_04IHGKJMLH@byte@     000000018002459c     binding.obj
 0002:000095a4       ??_C@_04ENMBGAPA@char@     00000001800245a4     binding.obj
 0002:000095ac       ??_C@_05GBMOKKDM@uchar@    00000001800245ac     binding.obj
 0002:000095b4       ??_C@_05BFKKPKCG@short@    00000001800245b4     binding.obj
 0002:000095bc       ??_C@_06IHFEHLHH@ushort@   00000001800245bc     binding.obj
 0002:000095c4       ??_C@_03JBIPMCLC@int@      00000001800245c4     binding.obj
 0002:000095c8       ??_C@_04EHNLIFAM@uint@     00000001800245c8     binding.obj
 0002:000095d0       ??_C@_04GOKPGOLB@long@     00000001800245d0     binding.obj
 0002:000095d8       ??_C@_05ECKAKEHN@ulong@    00000001800245d8     binding.obj
 0002:000095e0       ??_C@_08DDGAEFPP@longlong@ 00000001800245e0     binding.obj
 0002:000095f0       ??_C@_09CGIDHHPL@ulonglong@ 00000001800245f0     binding.obj
 0002:00009600       ??_C@_07PFMCDPMA@pointer@  0000000180024600     binding.obj
 0002:00009608       ??_C@_06DMBJOIF@size_t@    0000000180024608     binding.obj
 0002:00009610       ??_C@_06ELFECKBG@Object@   0000000180024610     binding.obj
 0002:00009618       ??_C@_06FPFOALMG@sizeof@   0000000180024618     binding.obj
 0002:00009620       ??_C@_07GFLGJDOB@alignof@  0000000180024620     binding.obj
 0002:00009628       ??_C@_0L@NDJODAMI@endianness@ 0000000180024628     binding.obj
 0002:00009634       ??_C@_04HIBGFPH@NULL@      0000000180024634     binding.obj
 0002:00009640       ??_C@_07LHEPONKL@address@  0000000180024640     binding.obj
 0002:00009648       ??_C@_0L@NGDODIPM@hexAddress@ 0000000180024648     binding.obj
 0002:00009654       ??_C@_06MCKMPGLB@isNull@   0000000180024654     binding.obj
 0002:00009660       ??_C@_0L@DDIGFLCE@readObject@ 0000000180024660     binding.obj
 0002:00009670       ??_C@_0M@EDMHKDPC@writeObject@ 0000000180024670     binding.obj
 0002:00009680       ??_C@_0M@MEBLNOGH@readPointer@ 0000000180024680     binding.obj
 0002:00009690       ??_C@_0N@KLNLOIHO@writePointer@ 0000000180024690     binding.obj
 0002:000096a0       ??_C@_09OKEBABIC@readInt64@ 00000001800246a0     binding.obj
 0002:000096b0       ??_C@_0L@MBENFIIH@writeInt64@ 00000001800246b0     binding.obj
 0002:000096c0       ??_C@_0L@BKGIFIDF@readUInt64@ 00000001800246c0     binding.obj
 0002:000096d0       ??_C@_0M@GKCJKAOD@writeUInt64@ 00000001800246d0     binding.obj
 0002:000096e0       ??_C@_0M@NKCHMKPI@readCString@ 00000001800246e0     binding.obj
 0002:000096f0       ??_C@_0M@FOFOAEAO@reinterpret@ 00000001800246f0     binding.obj
 0002:00009700       ??_C@_0BG@OCDBEFEP@reinterpretUntilZeros@ 0000000180024700     binding.obj
 0002:00009718       ??_C@_0DL@NAEEJOAE@D?3?2Desktop?2Files?2SophiaBot?2node@ 0000000180024718     binding.obj
 0002:00009758       ??_C@_07GGKKJCAC@binding@  0000000180024758     binding.obj
 0002:00009760       ??_C@_08JDDNMFDB@node?4exe@ 0000000180024760     win_delay_load_hook.obj
 0002:00009770       __pfnDliNotifyHook2        0000000180024770     win_delay_load_hook.obj
 0002:000097e8       ??_R4exception@std@@6B@    00000001800247e8     LIBCMT:throw_bad_alloc.obj
 0002:00009810       ??_R3exception@std@@8      0000000180024810     LIBCMT:throw_bad_alloc.obj
 0002:00009828       ??_R2exception@std@@8      0000000180024828     LIBCMT:throw_bad_alloc.obj
 0002:00009838       ??_R1A@?0A@EA@exception@std@@8 0000000180024838     LIBCMT:throw_bad_alloc.obj
 0002:00009860       ??_R4bad_alloc@std@@6B@    0000000180024860     LIBCMT:throw_bad_alloc.obj
 0002:00009888       ??_R3bad_alloc@std@@8      0000000180024888     LIBCMT:throw_bad_alloc.obj
 0002:000098a0       ??_R2bad_alloc@std@@8      00000001800248a0     LIBCMT:throw_bad_alloc.obj
 0002:000098b8       ??_R1A@?0A@EA@bad_alloc@std@@8 00000001800248b8     LIBCMT:throw_bad_alloc.obj
 0002:000098e0       ??_R4bad_array_new_length@std@@6B@ 00000001800248e0     LIBCMT:throw_bad_alloc.obj
 0002:00009908       ??_R3bad_array_new_length@std@@8 0000000180024908     LIBCMT:throw_bad_alloc.obj
 0002:00009920       ??_R2bad_array_new_length@std@@8 0000000180024920     LIBCMT:throw_bad_alloc.obj
 0002:00009940       ??_R1A@?0A@EA@bad_array_new_length@std@@8 0000000180024940     LIBCMT:throw_bad_alloc.obj
 0002:00009968       ??_R4type_info@@6B@        0000000180024968     LIBCMT:std_type_info_static.obj
 0002:00009990       ??_R3type_info@@8          0000000180024990     LIBCMT:std_type_info_static.obj
 0002:000099a8       ??_R2type_info@@8          00000001800249a8     LIBCMT:std_type_info_static.obj
 0002:000099b8       ??_R1A@?0A@EA@type_info@@8 00000001800249b8     LIBCMT:std_type_info_static.obj
 0002:00009da0       __rtc_iaa                  0000000180024da0     LIBCMT:initsect.obj
 0002:00009da8       __rtc_izz                  0000000180024da8     LIBCMT:initsect.obj
 0002:00009db0       __rtc_taa                  0000000180024db0     LIBCMT:initsect.obj
 0002:00009db8       __rtc_tzz                  0000000180024db8     LIBCMT:initsect.obj
 0002:0000b1d0       _TI2?AVbad_alloc@std@@     00000001800261d0     LIBCMT:throw_bad_alloc.obj
 0002:0000b1f0       _CTA2?AVbad_alloc@std@@    00000001800261f0     LIBCMT:throw_bad_alloc.obj
 0002:0000b208       _CT??_R0?AVbad_alloc@std@@@8??0bad_alloc@std@@QEAA@AEBV01@@Z24 0000000180026208     LIBCMT:throw_bad_alloc.obj
 0002:0000b230       _CT??_R0?AVexception@std@@@8??0exception@std@@QEAA@AEBV01@@Z24 0000000180026230     LIBCMT:throw_bad_alloc.obj
 0002:0000b258       _TI3?AVbad_array_new_length@std@@ 0000000180026258     LIBCMT:throw_bad_alloc.obj
 0002:0000b278       _CTA3?AVbad_array_new_length@std@@ 0000000180026278     LIBCMT:throw_bad_alloc.obj
 0002:0000b298       _CT??_R0?AVbad_array_new_length@std@@@8??0bad_array_new_length@std@@QEAA@AEBV01@@Z24 0000000180026298     LIBCMT:throw_bad_alloc.obj
 0002:0000b2bc       __DELAY_IMPORT_DESCRIPTOR_node_exe 00000001800262bc     node:node.exe
 0002:0000b2dc       __NULL_DELAY_IMPORT_DESCRIPTOR 00000001800262dc     node:node.exe
 0002:0000b460       \177node_NULL_THUNK_DATA_DLN 0000000180026460     node:node.exe
 0002:0000c0a0       \177node_NULL_THUNK_DATA_DLB 00000001800270a0     node:node.exe
 0002:0000c254       __IMPORT_DESCRIPTOR_KERNEL32 0000000180027254     kernel32:KERNEL32.dll
 0002:0000c268       __NULL_IMPORT_DESCRIPTOR   0000000180027268     kernel32:KERNEL32.dll
 0003:00000000       __security_cookie_complement 0000000180028000     LIBCMT:gs_cookie.obj
 0003:00000008       __security_cookie          0000000180028008     LIBCMT:gs_cookie.obj
 0003:00000010       __scrt_native_dllmain_reason 0000000180028010     LIBCMT:utility.obj
 0003:00000018       __isa_available            0000000180028018     LIBCMT:cpu_disp.obj
 0003:0000001c       __isa_enabled              000000018002801c     LIBCMT:cpu_disp.obj
 0003:00000020       __memcpy_nt_iters          0000000180028020     LIBCMT:cpu_disp.obj
 0003:00000028       __memset_nt_iters          0000000180028028     LIBCMT:cpu_disp.obj
 0003:00000048       __abort_behavior           0000000180028048     libucrt:abort.obj
 0003:00000050       _pwctype                   0000000180028050     libucrt:ctype.obj
 0003:00000060       __acrt_initial_locale_data 0000000180028060     libucrt:nlsdata.obj
 0003:000001b8       __acrt_initial_locale_pointers 00000001800281b8     libucrt:nlsdata.obj
 0003:000001c8       __acrt_wide_c_locale_string 00000001800281c8     libucrt:nlsdata.obj
 0003:000001d0       _iob                       00000001800281d0     libucrt:_file.obj
 0003:000002e0       __badioinfo                00000001800282e0     libucrt:ioinit.obj
 0003:00000330       __acrt_initial_multibyte_data 0000000180028330     libucrt:mbctype.obj
 0003:00000870       __globallocalestatus       0000000180028870     libucrt:glstatus.obj
 0003:00000880       __acrt_lconv_c             0000000180028880     libucrt:localeconv.obj
 0003:00000918       __acrt_lconv_static_decimal 0000000180028918     libucrt:localeconv.obj
 0003:0000091c       __acrt_lconv_static_W_decimal 000000018002891c     libucrt:localeconv.obj
 0003:00000920       _lookuptrailbytes          0000000180028920     libucrt:read.obj
 0003:00000a40       _fltused                   0000000180028a40     LIBCMT:fltused.obj
 0003:00000a90       ??_R0?AVbad_alloc@std@@@8  0000000180028a90     LIBCMT:throw_bad_alloc.obj
 0003:00000ab8       ??_R0?AVexception@std@@@8  0000000180028ab8     LIBCMT:throw_bad_alloc.obj
 0003:00000ae0       ??_R0?AVbad_array_new_length@std@@@8 0000000180028ae0     LIBCMT:throw_bad_alloc.obj
 0003:00000b10       ??_R0?AVtype_info@@@8      0000000180028b10     LIBCMT:std_type_info_static.obj
 0003:00000b30       __imp_?Value@External@v8@@QEBAPEAXXZ 0000000180028b30     node:node.exe
 0003:00000b38       __imp_?New@External@v8@@SA?AV?$Local@VExternal@v8@@@2@PEAVIsolate@2@PEAX@Z 0000000180028b38     node:node.exe
 0003:00000b40       __imp_?NewFromUnsigned@Integer@v8@@SA?AV?$Local@VInteger@v8@@@2@PEAVIsolate@2@I@Z 0000000180028b40     node:node.exe
 0003:00000b48       __imp_?ThrowException@Isolate@v8@@QEAA?AV?$Local@VValue@v8@@@2@V32@@Z 0000000180028b48     node:node.exe
 0003:00000b50       __imp_?GetCurrentContext@Isolate@v8@@QEAA?AV?$Local@VContext@v8@@@2@XZ 0000000180028b50     node:node.exe
 0003:00000b58       __imp_?GetCurrent@Isolate@v8@@SAPEAV12@XZ 0000000180028b58     node:node.exe
 0003:00000b60       __imp_?CreateHandle@HandleScope@v8@@KAPEAPEAVObject@internal@2@PEAVIsolate@42@PEAV342@@Z 0000000180028b60     node:node.exe
 0003:00000b68       __imp_?CreateHandle@HandleScope@v8@@CAPEAPEAVObject@internal@2@PEAVNeverReadOnlySpaceObject@42@PEAV342@@Z 0000000180028b68     node:node.exe
 0003:00000b70       __imp_??1HandleScope@v8@@QEAA@XZ 0000000180028b70     node:node.exe
 0003:00000b78       __imp_??0HandleScope@v8@@QEAA@PEAVIsolate@1@@Z 0000000180028b78     node:node.exe
 0003:00000b80       __imp_?Error@Exception@v8@@SA?AV?$Local@VValue@v8@@@2@V?$Local@VString@v8@@@2@@Z 0000000180028b80     node:node.exe
 0003:00000b88       __imp_?TypeError@Exception@v8@@SA?AV?$Local@VValue@v8@@@2@V?$Local@VString@v8@@@2@@Z 0000000180028b88     node:node.exe
 0003:00000b90       __imp_?SetClassName@FunctionTemplate@v8@@QEAAXV?$Local@VString@v8@@@2@@Z 0000000180028b90     node:node.exe
 0003:00000b98       __imp_?GetFunction@FunctionTemplate@v8@@QEAA?AV?$MaybeLocal@VFunction@v8@@@2@V?$Local@VContext@v8@@@2@@Z 0000000180028b98     node:node.exe
 0003:00000ba0       __imp_?New@FunctionTemplate@v8@@SA?AV?$Local@VFunctionTemplate@v8@@@2@PEAVIsolate@2@P6AXAEBV?$FunctionCallbackInfo@VValue@v8@@@2@@ZV?$Local@VValue@v8@@@2@V?$Local@VSignature@v8@@@2@HW4ConstructorBehavior@2@W4SideEffectType@2@@Z 0000000180028ba0     node:node.exe
 0003:00000ba8       __imp_?ToLocalEmpty@V8@v8@@CAXXZ 0000000180028ba8     node:node.exe
 0003:00000bb0       __imp_?MakeWeak@V8@v8@@CAXPEAPEAVObject@internal@2@PEAXP6AXAEBV?$WeakCallbackInfo@X@2@@ZW4WeakCallbackType@2@@Z 0000000180028bb0     node:node.exe
 0003:00000bb8       __imp_?DisposeGlobal@V8@v8@@CAXPEAPEAVObject@internal@2@@Z 0000000180028bb8     node:node.exe
 0003:00000bc0       __imp_?GlobalizeReference@V8@v8@@CAPEAPEAVObject@internal@2@PEAVIsolate@42@PEAPEAV342@@Z 0000000180028bc0     node:node.exe
 0003:00000bc8       __imp_?Uint32Value@Value@v8@@QEBAIXZ 0000000180028bc8     node:node.exe
 0003:00000bd0       __imp_?IntegerValue@Value@v8@@QEBA?AV?$Maybe@_J@2@V?$Local@VContext@v8@@@2@@Z 0000000180028bd0     node:node.exe
 0003:00000bd8       __imp_?BooleanValue@Value@v8@@QEBA_NXZ 0000000180028bd8     node:node.exe
 0003:00000be0       __imp_?ToUint32@Value@v8@@QEBA?AV?$MaybeLocal@VUint32@v8@@@2@V?$Local@VContext@v8@@@2@@Z 0000000180028be0     node:node.exe
 0003:00000be8       __imp_?IsNumber@Value@v8@@QEBA_NXZ 0000000180028be8     node:node.exe
 0003:00000bf0       __imp_?IsName@Value@v8@@QEBA_NXZ 0000000180028bf0     node:node.exe
 0003:00000bf8       __imp_?Escape@EscapableHandleScope@v8@@AEAAPEAPEAVObject@internal@2@PEAPEAV342@@Z 0000000180028bf8     node:node.exe
 0003:00000c00       __imp_??0EscapableHandleScope@v8@@QEAA@PEAVIsolate@1@@Z 0000000180028c00     node:node.exe
 0003:00000c08       __imp_??1Utf8Value@String@v8@@QEAA@XZ 0000000180028c08     node:node.exe
 0003:00000c10       __imp_??0Utf8Value@String@v8@@QEAA@V?$Local@VValue@v8@@@2@@Z 0000000180028c10     node:node.exe
 0003:00000c18       __imp_?NewFromUtf8@String@v8@@SA?AV?$MaybeLocal@VString@v8@@@2@PEAVIsolate@2@PEBDW4NewStringType@2@H@Z 0000000180028c18     node:node.exe
 0003:00000c20       __imp_?New@Number@v8@@SA?AV?$Local@VNumber@v8@@@2@PEAVIsolate@2@N@Z 0000000180028c20     node:node.exe
 0003:00000c28       __imp_?SlowGetInternalField@Object@v8@@AEAA?AV?$Local@VValue@v8@@@2@H@Z 0000000180028c28     node:node.exe
 0003:00000c30       __imp_?New@Object@v8@@SA?AV?$Local@VObject@v8@@@2@PEAVIsolate@2@@Z 0000000180028c30     node:node.exe
 0003:00000c38       __imp_?SetInternalField@Object@v8@@QEAAXHV?$Local@VValue@v8@@@2@@Z 0000000180028c38     node:node.exe
 0003:00000c40       __imp_?DefineOwnProperty@Object@v8@@QEAA?AV?$Maybe@_N@2@V?$Local@VContext@v8@@@2@V?$Local@VName@v8@@@2@V?$Local@VValue@v8@@@2@W4PropertyAttribute@2@@Z 0000000180028c40     node:node.exe
 0003:00000c48       __imp_?Set@Object@v8@@QEAA_NV?$Local@VValue@v8@@@2@0@Z 0000000180028c48     node:node.exe
 0003:00000c50       __imp_?Set@Object@v8@@QEAA?AV?$Maybe@_N@2@V?$Local@VContext@v8@@@2@V?$Local@VValue@v8@@@2@1@Z 0000000180028c50     node:node.exe
 0003:00000c58       __imp_?SetInternalFieldCount@ObjectTemplate@v8@@QEAAXH@Z 0000000180028c58     node:node.exe
 0003:00000c60       __imp_?NewInstance@ObjectTemplate@v8@@QEAA?AV?$MaybeLocal@VObject@v8@@@2@V?$Local@VContext@v8@@@2@@Z 0000000180028c60     node:node.exe
 0003:00000c68       __imp_?New@ObjectTemplate@v8@@SA?AV?$Local@VObjectTemplate@v8@@@2@PEAVIsolate@2@V?$Local@VFunctionTemplate@v8@@@2@@Z 0000000180028c68     node:node.exe
 0003:00000c70       __imp_node_module_register 0000000180028c70     node:node.exe
 0003:00000c78       __imp_?HasInstance@Buffer@node@@YA_NV?$Local@VValue@v8@@@v8@@@Z 0000000180028c78     node:node.exe
 0003:00000c80       __imp_?New@Buffer@node@@YA?AV?$MaybeLocal@VObject@v8@@@v8@@PEAVIsolate@4@PEAD_KP6AX1PEAX@Z3@Z 0000000180028c80     node:node.exe
 0003:00000c88       __imp_?Data@Buffer@node@@YAPEADV?$Local@VObject@v8@@@v8@@@Z 0000000180028c88     node:node.exe
 0003:00000c90       \177node_NULL_THUNK_DATA_DLA 0000000180028c90     node:node.exe
 0003:00000ca0       __hmod__node_exe           0000000180028ca0     node:node.exe
 0003:00001220       ?__type_info_root_node@@3U__type_info_node@@A 0000000180029220     LIBCMT:tncleanup.obj
 0003:00001230       ?_OptionsStorage@?1??__local_stdio_scanf_options@@9@4_KA 0000000180029230     LIBCMT:default_local_stdio_options.obj
 0003:00001238       __scrt_current_native_startup_state 0000000180029238     LIBCMT:utility.obj
 0003:00001240       __scrt_native_startup_lock 0000000180029240     LIBCMT:utility.obj
 0003:00001280       __scrt_debugger_hook_flag  0000000180029280     LIBCMT:utility_desktop.obj
 0003:00001284       __favor                    0000000180029284     LIBCMT:cpu_disp.obj
 0003:00001288       ?__WinRTOutOfMemoryExceptionCallback@@3P6APEAXXZEA 0000000180029288     libvcruntime:ehhelpers.obj
 0003:00001290       ?pArgList@UnDecorator@@0PEAVReplicator@@EA 0000000180029290     libvcruntime:undname.obj
 0003:00001298       ?pZNameList@UnDecorator@@0PEAVReplicator@@EA 0000000180029298     libvcruntime:undname.obj
 0003:000012a0       ?pTemplateArgList@UnDecorator@@0PEAVReplicator@@EA 00000001800292a0     libvcruntime:undname.obj
 0003:000012a8       ?gName@UnDecorator@@0PEBDEB 00000001800292a8     libvcruntime:undname.obj
 0003:000012b0       ?name@UnDecorator@@0PEBDEB 00000001800292b0     libvcruntime:undname.obj
 0003:000012b8       ?disableFlags@UnDecorator@@0KA 00000001800292b8     libvcruntime:undname.obj
 0003:000012bc       ?fExplicitTemplateParams@UnDecorator@@0_NA 00000001800292bc     libvcruntime:undname.obj
 0003:000012bd       ?fGetTemplateArgumentList@UnDecorator@@0_NA 00000001800292bd     libvcruntime:undname.obj
 0003:000012c0       ?m_pGetParameter@UnDecorator@@0P6APEADJ@ZEA 00000001800292c0     libvcruntime:undname.obj
 0003:000012c8       ?m_CHPENameOffset@UnDecorator@@0KA 00000001800292c8     libvcruntime:undname.obj
 0003:000012cc       ?m_recursionLevel@UnDecorator@@0KA 00000001800292cc     libvcruntime:undname.obj
 0003:000013f0       __pPurecall                00000001800293f0     libvcruntime:purevirt_data.obj
 0003:00001410       ?c_exit_complete@?1???R<lambda_6e4b09c48022b2350581041d5f6b0c4c>@@QEBA@XZ@4_NA 0000000180029410     libucrt:exit.obj
 0003:00001528       _environ_table             0000000180029528     libucrt:environment_initialization.obj
 0003:00001530       _wenviron_table            0000000180029530     libucrt:environment_initialization.obj
 0003:00001538       __dcrt_initial_wide_environment 0000000180029538     libucrt:environment_initialization.obj
 0003:00001540       __dcrt_initial_narrow_environment 0000000180029540     libucrt:environment_initialization.obj
 0003:00001548       __acrt_atexit_table        0000000180029548     libucrt:onexit.obj
 0003:00001560       __acrt_at_quick_exit_table 0000000180029560     libucrt:onexit.obj
 0003:00001580       __acrt_locale_changed_data 0000000180029580     libucrt:wsetlocale.obj
 0003:00001588       __acrt_current_locale_data 0000000180029588     libucrt:nlsdata.obj
 0003:00001598       _nstream                   0000000180029598     libucrt:_file.obj
 0003:000015a0       __piob                     00000001800295a0     libucrt:_file.obj
 0003:000015a8       _cflush                    00000001800295a8     libucrt:_file.obj
 0003:000015b8       __acrt_stdout_buffer       00000001800295b8     libucrt:_sftbuf.obj
 0003:000015c0       __acrt_stderr_buffer       00000001800295c0     libucrt:_sftbuf.obj
 0003:000015d0       __pioinfo                  00000001800295d0     libucrt:ioinit.obj
 0003:000019d0       _nhandle                   00000001800299d0     libucrt:ioinit.obj
 0003:00001c40       _mbctype                   0000000180029c40     libucrt:mbctype.obj
 0003:00001c48       _mbcasemap                 0000000180029c48     libucrt:mbctype.obj
 0003:00001c50       __acrt_current_multibyte_data 0000000180029c50     libucrt:mbctype.obj
 0003:00001c60       _pgmptr                    0000000180029c60     libucrt:argv_data.obj
 0003:00001c68       __argc                     0000000180029c68     libucrt:argv_data.obj
 0003:00001c70       __argv                     0000000180029c70     libucrt:argv_data.obj
 0003:00001c78       __wargv                    0000000180029c78     libucrt:argv_data.obj
 0003:00001c80       _acmdln                    0000000180029c80     libucrt:argv_data.obj
 0003:00001c88       _wcmdln                    0000000180029c88     libucrt:argv_data.obj
 0003:00001e40       __acrt_heap                0000000180029e40     libucrt:heap_handle.obj
 0003:00001e50       __acrt_lconv_static_null   0000000180029e50     libucrt:localeconv.obj
 0003:00001e54       __acrt_lconv_static_W_null 0000000180029e54     libucrt:localeconv.obj
 0003:00001e68       __fma3_is_available        0000000180029e68     libucrt:fma3_available.obj
 0003:00001e6c       __use_fma3_lib             0000000180029e6c     libucrt:fma3_available.obj
 0003:00001e70       ?DloadKernel32@@3PEAUHINSTANCE__@@EA 0000000180029e70     DelayImp:delayhlp.obj
 0003:00001e78       ?DloadAcquireSRWLockExclusive@@3P6AXPEA_K@ZEA 0000000180029e78     DelayImp:delayhlp.obj
 0003:00001e80       ?DloadReleaseSRWLockExclusive@@3P6AXPEA_K@ZEA 0000000180029e80     DelayImp:delayhlp.obj
 0003:00001e88       ?DloadSrwLock@@3_KA        0000000180029e88     DelayImp:delayhlp.obj
 0003:00001e90       ?DloadSectionLockCount@@3KA 0000000180029e90     DelayImp:delayhlp.obj
 0003:00001e94       ?DloadSectionOldProtection@@3KA 0000000180029e94     DelayImp:delayhlp.obj
 0003:00001e98       ?DloadSectionCommitPermanent@@3KA 0000000180029e98     DelayImp:delayhlp.obj
 0003:00001ea0       ?_OptionsStorage@?1??__local_stdio_printf_options@@9@4_KA 0000000180029ea0     binding.obj
 0003:00001ea8       __scrt_ucrt_dll_is_in_use  0000000180029ea8     <common>
 0003:00001eb0       __dyn_tls_init_callback    0000000180029eb0     <common>

 entry point at        0001:000055e8

 Static symbols

 0000:fffd1000       .debug$S                   0000000180000000     binding.exp
 0000:fffd1000       .debug$S                   0000000180000000     kernel32:KERNEL32.dll
 0000:fffd1000       .debug$S                   0000000180000000     kernel32:KERNEL32.dll
 0000:fffd1000       .debug$S                   0000000180000000     kernel32:KERNEL32.dll
 0000:fffd1000       .debug$S                   0000000180000000     kernel32:KERNEL32.dll
 0000:fffd1000       .debug$S                   0000000180000000     kernel32:KERNEL32.dll
 0000:fffd1000       .debug$S                   0000000180000000     kernel32:KERNEL32.dll
 0000:fffd1000       .debug$S                   0000000180000000     kernel32:KERNEL32.dll
 0000:fffd1000       .debug$S                   0000000180000000     kernel32:KERNEL32.dll
 0000:fffd1000       .debug$S                   0000000180000000     kernel32:KERNEL32.dll
 0000:fffd1000       .debug$S                   0000000180000000     kernel32:KERNEL32.dll
 0000:fffd1000       .debug$S                   0000000180000000     kernel32:KERNEL32.dll
 0000:fffd1000       .debug$S                   0000000180000000     kernel32:KERNEL32.dll
 0000:fffd1000       .debug$S                   0000000180000000     kernel32:KERNEL32.dll
 0000:fffd1000       .debug$S                   0000000180000000     kernel32:KERNEL32.dll
 0000:fffd1000       .debug$S                   0000000180000000     kernel32:KERNEL32.dll
 0000:fffd1000       .debug$S                   0000000180000000     kernel32:KERNEL32.dll
 0000:fffd1000       .debug$S                   0000000180000000     kernel32:KERNEL32.dll
 0000:fffd1000       .debug$S                   0000000180000000     kernel32:KERNEL32.dll
 0000:fffd1000       .debug$S                   0000000180000000     kernel32:KERNEL32.dll
 0000:fffd1000       .debug$S                   0000000180000000     kernel32:KERNEL32.dll
 0000:fffd1000       .debug$S                   0000000180000000     kernel32:KERNEL32.dll
 0000:fffd1000       .debug$S                   0000000180000000     kernel32:KERNEL32.dll
 0000:fffd1000       .debug$S                   0000000180000000     kernel32:KERNEL32.dll
 0000:fffd1000       .debug$S                   0000000180000000     kernel32:KERNEL32.dll
 0000:fffd1000       .debug$S                   0000000180000000     kernel32:KERNEL32.dll
 0000:fffd1000       .debug$S                   0000000180000000     kernel32:KERNEL32.dll
 0000:fffd1000       .debug$S                   0000000180000000     kernel32:KERNEL32.dll
 0000:fffd1000       .debug$S                   0000000180000000     kernel32:KERNEL32.dll
 0000:fffd1000       .debug$S                   0000000180000000     kernel32:KERNEL32.dll
 0000:fffd1000       .debug$S                   0000000180000000     kernel32:KERNEL32.dll
 0000:fffd1000       .debug$S                   0000000180000000     kernel32:KERNEL32.dll
 0000:fffd1000       .debug$S                   0000000180000000     kernel32:KERNEL32.dll
 0000:fffd1000       .debug$S                   0000000180000000     kernel32:KERNEL32.dll
 0000:fffd1000       .debug$S                   0000000180000000     kernel32:KERNEL32.dll
 0000:fffd1000       .debug$S                   0000000180000000     kernel32:KERNEL32.dll
 0000:fffd1000       .debug$S                   0000000180000000     kernel32:KERNEL32.dll
 0000:fffd1000       .debug$S                   0000000180000000     kernel32:KERNEL32.dll
 0000:fffd1000       .debug$S                   0000000180000000     kernel32:KERNEL32.dll
 0000:fffd1000       .debug$S                   0000000180000000     kernel32:KERNEL32.dll
 0000:fffd1000       .debug$S                   0000000180000000     kernel32:KERNEL32.dll
 0000:fffd1000       .debug$S                   0000000180000000     kernel32:KERNEL32.dll
 0000:fffd1000       .debug$S                   0000000180000000     kernel32:KERNEL32.dll
 0000:fffd1000       .debug$S                   0000000180000000     kernel32:KERNEL32.dll
 0000:fffd1000       .debug$S                   0000000180000000     kernel32:KERNEL32.dll
 0000:fffd1000       .debug$S                   0000000180000000     kernel32:KERNEL32.dll
 0000:fffd1000       .debug$S                   0000000180000000     kernel32:KERNEL32.dll
 0000:fffd1000       .debug$S                   0000000180000000     kernel32:KERNEL32.dll
 0000:fffd1000       .debug$S                   0000000180000000     kernel32:KERNEL32.dll
 0000:fffd1000       .debug$S                   0000000180000000     kernel32:KERNEL32.dll
 0000:fffd1000       .debug$S                   0000000180000000     kernel32:KERNEL32.dll
 0000:fffd1000       .debug$S                   0000000180000000     kernel32:KERNEL32.dll
 0000:fffd1000       .debug$S                   0000000180000000     kernel32:KERNEL32.dll
 0000:fffd1000       .debug$S                   0000000180000000     kernel32:KERNEL32.dll
 0000:fffd1000       .debug$S                   0000000180000000     kernel32:KERNEL32.dll
 0000:fffd1000       .debug$S                   0000000180000000     kernel32:KERNEL32.dll
 0000:fffd1000       .debug$S                   0000000180000000     kernel32:KERNEL32.dll
 0000:fffd1000       .debug$S                   0000000180000000     kernel32:KERNEL32.dll
 0000:fffd1000       .debug$S                   0000000180000000     kernel32:KERNEL32.dll
 0000:fffd1000       .debug$S                   0000000180000000     kernel32:KERNEL32.dll
 0000:fffd1000       .debug$S                   0000000180000000     kernel32:KERNEL32.dll
 0000:fffd1000       .debug$S                   0000000180000000     kernel32:KERNEL32.dll
 0000:fffd1000       .debug$S                   0000000180000000     kernel32:KERNEL32.dll
 0000:fffd1000       .debug$S                   0000000180000000     kernel32:KERNEL32.dll
 0000:fffd1000       .debug$S                   0000000180000000     kernel32:KERNEL32.dll
 0000:fffd1000       .debug$S                   0000000180000000     kernel32:KERNEL32.dll
 0000:fffd1000       .debug$S                   0000000180000000     kernel32:KERNEL32.dll
 0000:fffd1000       .debug$S                   0000000180000000     kernel32:KERNEL32.dll
 0000:fffd1000       .debug$S                   0000000180000000     kernel32:KERNEL32.dll
 0000:fffd1000       .debug$S                   0000000180000000     kernel32:KERNEL32.dll
 0000:fffd1000       .debug$S                   0000000180000000     kernel32:KERNEL32.dll
 0000:fffd1000       .debug$S                   0000000180000000     kernel32:KERNEL32.dll
 0000:fffd1000       .debug$S                   0000000180000000     kernel32:KERNEL32.dll
 0000:fffd1000       .debug$S                   0000000180000000     kernel32:KERNEL32.dll
 0000:fffd1000       .debug$S                   0000000180000000     kernel32:KERNEL32.dll
 0000:fffd1000       .debug$S                   0000000180000000     kernel32:KERNEL32.dll
 0000:fffd1000       .debug$S                   0000000180000000     kernel32:KERNEL32.dll
 0000:fffd1000       .debug$S                   0000000180000000     kernel32:KERNEL32.dll
 0000:fffd1000       .debug$S                   0000000180000000     kernel32:KERNEL32.dll
 0000:fffd1000       .debug$S                   0000000180000000     kernel32:KERNEL32.dll
 0000:fffd1000       .debug$S                   0000000180000000     kernel32:KERNEL32.dll
 0000:fffd1000       .debug$S                   0000000180000000     kernel32:KERNEL32.dll
 0000:fffd1000       .debug$S                   0000000180000000     kernel32:KERNEL32.dll
 0000:fffd1000       .debug$S                   0000000180000000     kernel32:KERNEL32.dll
 0000:fffd1000       .debug$S                   0000000180000000     kernel32:KERNEL32.dll
 0000:fffd1000       .debug$S                   0000000180000000     kernel32:KERNEL32.dll
 0000:fffd1000       .debug$S                   0000000180000000     kernel32:KERNEL32.dll
 0000:fffd1000       .debug$S                   0000000180000000     kernel32:KERNEL32.dll
 0000:fffd1000       .debug$S                   0000000180000000     kernel32:KERNEL32.dll
 0000:fffd1000       .debug$S                   0000000180000000     kernel32:KERNEL32.dll
 0000:fffd1000       .debug$S                   0000000180000000     node:node.exe
 0000:fffd1000       .debug$S                   0000000180000000     node:node.exe
 0000:fffd1000       .debug$S                   0000000180000000     node:node.exe
 0000:fffd1000       .debug$S                   0000000180000000     node:node.exe
 0000:fffd1000       .debug$S                   0000000180000000     node:node.exe
 0000:fffd1000       .debug$S                   0000000180000000     node:node.exe
 0000:fffd1000       .debug$S                   0000000180000000     node:node.exe
 0000:fffd1000       .debug$S                   0000000180000000     node:node.exe
 0000:fffd1000       .debug$S                   0000000180000000     node:node.exe
 0000:fffd1000       .debug$S                   0000000180000000     node:node.exe
 0000:fffd1000       .debug$S                   0000000180000000     node:node.exe
 0000:fffd1000       .debug$S                   0000000180000000     node:node.exe
 0000:fffd1000       .debug$S                   0000000180000000     node:node.exe
 0000:fffd1000       .debug$S                   0000000180000000     node:node.exe
 0000:fffd1000       .debug$S                   0000000180000000     node:node.exe
 0000:fffd1000       .debug$S                   0000000180000000     node:node.exe
 0000:fffd1000       .debug$S                   0000000180000000     node:node.exe
 0000:fffd1000       .debug$S                   0000000180000000     node:node.exe
 0000:fffd1000       .debug$S                   0000000180000000     node:node.exe
 0000:fffd1000       .debug$S                   0000000180000000     node:node.exe
 0000:fffd1000       .debug$S                   0000000180000000     node:node.exe
 0000:fffd1000       .debug$S                   0000000180000000     node:node.exe
 0000:fffd1000       .debug$S                   0000000180000000     node:node.exe
 0000:fffd1000       .debug$S                   0000000180000000     node:node.exe
 0000:fffd1000       .debug$S                   0000000180000000     node:node.exe
 0000:fffd1000       .debug$S                   0000000180000000     node:node.exe
 0000:fffd1000       .debug$S                   0000000180000000     node:node.exe
 0000:fffd1000       .debug$S                   0000000180000000     node:node.exe
 0000:fffd1000       .debug$S                   0000000180000000     node:node.exe
 0000:fffd1000       .debug$S                   0000000180000000     node:node.exe
 0000:fffd1000       .debug$S                   0000000180000000     node:node.exe
 0000:fffd1000       .debug$S                   0000000180000000     node:node.exe
 0000:fffd1000       .debug$S                   0000000180000000     node:node.exe
 0000:fffd1000       .debug$S                   0000000180000000     node:node.exe
 0000:fffd1000       .debug$S                   0000000180000000     node:node.exe
 0000:fffd1000       .debug$S                   0000000180000000     node:node.exe
 0000:fffd1000       .debug$S                   0000000180000000     node:node.exe
 0000:fffd1000       .debug$S                   0000000180000000     node:node.exe
 0000:fffd1000       .debug$S                   0000000180000000     node:node.exe
 0000:fffd1000       .debug$S                   0000000180000000     node:node.exe
 0000:fffd1000       .debug$S                   0000000180000000     node:node.exe
 0000:fffd1000       .debug$S                   0000000180000000     node:node.exe
 0000:fffd1000       .debug$S                   0000000180000000     node:node.exe
 0000:fffd1000       .debug$S                   0000000180000000     node:node.exe
 0000:fffd1000       .debug$S                   0000000180000000     node:node.exe
 0000:fffd1000       .debug$S                   0000000180000000     node:node.exe
 0000:fffd1000       .debug$S                   0000000180000000     node:node.exe
 0000:fffd1000       .debug$S                   0000000180000000     node:node.exe
 0000:fffd1000       .debug$S                   0000000180000000     node:node.exe
 0000:fffd1000       .debug$S                   0000000180000000     node:node.exe
 0000:fffd1000       .debug$S                   0000000180000000     node:node.exe
 0000:fffd1000       .debug$S                   0000000180000000     node:node.exe
 0000:fffd1000       .debug$S                   0000000180000000     node:node.exe
 0000:fffd1000       .debug$S                   0000000180000000     node:node.exe
 0000:fffd1000       .debug$S                   0000000180000000     node:node.exe
 0000:fffd1000       .debug$S                   0000000180000000     node:node.exe
 0000:fffd1000       .debug$S                   0000000180000000     node:node.exe
 0000:fffd1000       .debug$S                   0000000180000000     node:node.exe
 0000:fffd1000       .debug$S                   0000000180000000     node:node.exe
 0000:fffd1000       .debug$S                   0000000180000000     node:node.exe
 0001:00000080       ?FunctionCallbackWrapper@imp@Nan@@YAXAEBV?$FunctionCallbackInfo@VValue@v8@@@v8@@@Z 0000000180001080 f   binding.obj
 0001:00000230       ?GetInt64@?A0x36d5b1ef@@YA_JV?$Local@VValue@v8@@@v8@@@Z 0000000180001230 f   binding.obj
 0001:000002c0       ?Address@?A0x36d5b1ef@@YAXAEBV?$FunctionCallbackInfo@VValue@v8@@@Nan@@@Z 00000001800012c0 f   binding.obj
 0001:00000440       ?HexAddress@?A0x36d5b1ef@@YAXAEBV?$FunctionCallbackInfo@VValue@v8@@@Nan@@@Z 0000000180001440 f   binding.obj
 0001:00000610       ?IsNull@?A0x36d5b1ef@@YAXAEBV?$FunctionCallbackInfo@VValue@v8@@@Nan@@@Z 0000000180001610 f   binding.obj
 0001:00000750       ?wrap_pointer_cb@?A0x36d5b1ef@@YAXPEADPEAX@Z 0000000180001750 f   binding.obj
 0001:00000750       ?write_object_cb@?A0x36d5b1ef@@YAXAEBV?$WeakCallbackInfo@X@Nan@@@Z 0000000180001750 f   binding.obj
 0001:00000760       ?WrapPointer@?A0x36d5b1ef@@YA?AV?$Local@VValue@v8@@@v8@@PEAD_K@Z 0000000180001760 f   binding.obj
 0001:00000840       ?ReadObject@?A0x36d5b1ef@@YAXAEBV?$FunctionCallbackInfo@VValue@v8@@@Nan@@@Z 0000000180001840 f   binding.obj
 0001:00000a00       ?WriteObject@?A0x36d5b1ef@@YAXAEBV?$FunctionCallbackInfo@VValue@v8@@@Nan@@@Z 0000000180001a00 f   binding.obj
 0001:00000c20       ?ReadPointer@?A0x36d5b1ef@@YAXAEBV?$FunctionCallbackInfo@VValue@v8@@@Nan@@@Z 0000000180001c20 f   binding.obj
 0001:00000e30       ?WritePointer@?A0x36d5b1ef@@YAXAEBV?$FunctionCallbackInfo@VValue@v8@@@Nan@@@Z 0000000180001e30 f   binding.obj
 0001:00001090       ?ReadInt64@?A0x36d5b1ef@@YAXAEBV?$FunctionCallbackInfo@VValue@v8@@@Nan@@@Z 0000000180002090 f   binding.obj
 0001:00001300       ?WriteInt64@?A0x36d5b1ef@@YAXAEBV?$FunctionCallbackInfo@VValue@v8@@@Nan@@@Z 0000000180002300 f   binding.obj
 0001:00001760       ?ReadUInt64@?A0x36d5b1ef@@YAXAEBV?$FunctionCallbackInfo@VValue@v8@@@Nan@@@Z 0000000180002760 f   binding.obj
 0001:000019e0       ?WriteUInt64@?A0x36d5b1ef@@YAXAEBV?$FunctionCallbackInfo@VValue@v8@@@Nan@@@Z 00000001800029e0 f   binding.obj
 0001:00001e40       ?ReadCString@?A0x36d5b1ef@@YAXAEBV?$FunctionCallbackInfo@VValue@v8@@@Nan@@@Z 0000000180002e40 f   binding.obj
 0001:00002000       ?ReinterpretBuffer@?A0x36d5b1ef@@YAXAEBV?$FunctionCallbackInfo@VValue@v8@@@Nan@@@Z 0000000180003000 f   binding.obj
 0001:00002210       ?ReinterpretBufferUntilZeros@?A0x36d5b1ef@@YAXAEBV?$FunctionCallbackInfo@VValue@v8@@@Nan@@@Z 0000000180003210 f   binding.obj
 0001:00004bd0       _register_binding          0000000180005bd0 f   binding.obj
 0001:00004f90       ?load_exe_hook@@YAP6A_JXZIPEAUDelayLoadInfo@@@Z 0000000180005f90 f   win_delay_load_hook.obj
 0001:00005250       $$000000                   0000000180006250     LIBCMT:amdsecgs.obj
 0001:000052c8       ?dllmain_crt_dispatch@@YAHQEAUHINSTANCE__@@KQEAX@Z 00000001800062c8 f   LIBCMT:dll_dllmain.obj
 0001:00005318       ?dllmain_crt_process_attach@@YAHQEAUHINSTANCE__@@QEAX@Z 0000000180006318 f   LIBCMT:dll_dllmain.obj
 0001:00005430       ?dllmain_crt_process_detach@@YAH_N@Z 0000000180006430 f   LIBCMT:dll_dllmain.obj
 0001:000054b4       ?dllmain_dispatch@@YAHQEAUHINSTANCE__@@KQEAX@Z 00000001800064b4 f   LIBCMT:dll_dllmain.obj
 0001:000057e0       capture_current_context    00000001800067e0 f   LIBCMT:gs_report.obj
 0001:00005850       capture_previous_context   0000000180006850 f   LIBCMT:gs_report.obj
 0001:000066c0       $$000000                   00000001800076c0     libvcruntime:memset.obj
 0001:00006880       $$000000                   0000000180007880     libvcruntime:notify.obj
 0001:00006b20       $$000000                   0000000180007b20     libvcruntime:memcpy.obj
 0001:00006f28       ?try_get_function@@YAPEAXW4function_id@?A0x5a6460af@@QEBDQEBW4module_id@2@2@Z 0000000180007f28 f   libvcruntime:winapi_downlevel.obj
 0001:00007210       $$000000                   0000000180008210     libvcruntime:handlers.obj
 0001:000081ac       ??$?RV<lambda_676bd5779251ec186b530f0a904b4b35>@@AEAV<lambda_b579ea784fd840951dfbcbdaebf709fd>@@V<lambda_10027885da78ada7fb00668d7e2e96b5>@@@?$__crt_seh_guarded_call@H@@QEAAH$$QEAV<lambda_676bd5779251ec186b530f0a904b4b35>@@AEAV<lambda_b579ea784fd840951dfbcbdaebf709fd>@@$$QEAV<lambda_10027885da78ada7fb00668d7e2e96b5>@@@Z 00000001800091ac f   libucrt:output.obj
 0001:000081ec       ??$common_vsprintf@Vformat_validation_base@__crt_stdio_output@@D@@YAH_KQEAD0QEBDQEAU__crt_locale_pointers@@1@Z 00000001800091ec f   libucrt:output.obj
 0001:000083b8       ??$common_vsprintf@Vstandard_base@__crt_stdio_output@@_W@@YAH_KQEA_W0QEB_WQEAU__crt_locale_pointers@@QEAD@Z 00000001800093b8 f   libucrt:output.obj
 0001:00008b08       ??R<lambda_b579ea784fd840951dfbcbdaebf709fd>@@QEBAHXZ 0000000180009b08 f   libucrt:output.obj
 0001:0000b6f8       ??$common_assert_to_message_box@_W@@YAXQEB_W0IQEAX@Z 000000018000c6f8 f   libucrt:assert.obj
 0001:0000b7bc       ??$common_assert_to_message_box_build_string@_W@@YAXQEA_W_KQEB_W2IQEAX@Z 000000018000c7bc f   libucrt:assert.obj
 0001:0000bcc0       ??$common_assert_to_stderr@_W@@YAXQEB_W0I@Z 000000018000ccc0 f   libucrt:assert.obj
 0001:0000be30       ?get_assert_format@@YAPEB_W_W@Z 000000018000ce30 f   libucrt:assert.obj
 0001:0000c3bc       ??$?RV<lambda_d80eeec6fff315bfe5c115232f3240e3>@@AEAV<lambda_6e4b09c48022b2350581041d5f6b0c4c>@@V<lambda_2358e3775559c9db80273638284d5e45>@@@?$__crt_seh_guarded_call@X@@QEAAX$$QEAV<lambda_d80eeec6fff315bfe5c115232f3240e3>@@AEAV<lambda_6e4b09c48022b2350581041d5f6b0c4c>@@$$QEAV<lambda_2358e3775559c9db80273638284d5e45>@@@Z 000000018000d3bc f   libucrt:exit.obj
 0001:0000c3f4       ??R<lambda_6e4b09c48022b2350581041d5f6b0c4c>@@QEBA@XZ 000000018000d3f4 f   libucrt:exit.obj
 0001:0000c4b8       ?atexit_exception_filter@@YAHK@Z 000000018000d4b8 f   libucrt:exit.obj
 0001:0000c4c4       ?common_exit@@YAXHW4_crt_exit_cleanup_mode@@W4_crt_exit_return_mode@@@Z 000000018000d4c4 f   libucrt:exit.obj
 0001:0000c580       ?exit_or_terminate_process@@YAXI@Z 000000018000d580 f   libucrt:exit.obj
 0001:0000c5cc       ?try_cor_exit_process@@YAXI@Z 000000018000d5cc f   libucrt:exit.obj
 0001:0000c654       ??$parse_command_line@D@@YAXPEADPEAPEAD0PEA_K2@Z 000000018000d654 f   libucrt:argv_parsing.obj
 0001:0000ca00       ??$common_initialize_environment_nolock@D@@YAHXZ 000000018000da00 f   libucrt:environment_initialization.obj
 0001:0000ca6c       ??$create_environment@D@@YAQEAPEADQEAD@Z 000000018000da6c f   libucrt:environment_initialization.obj
 0001:0000cb74       ??$free_environment@D@@YAXQEAPEAD@Z 000000018000db74 f   libucrt:environment_initialization.obj
 0001:0000cb74       ??$free_environment@_W@@YAXQEAPEA_W@Z 000000018000db74 f   libucrt:environment_initialization.obj
 0001:0000cbb8       ??$uninitialize_environment_internal@D@@YAXAEAPEAPEAD@Z 000000018000dbb8 f   libucrt:environment_initialization.obj
 0001:0000cbd4       ??$uninitialize_environment_internal@_W@@YAXAEAPEAPEA_W@Z 000000018000dbd4 f   libucrt:environment_initialization.obj
 0001:0000cc30       ??$?RV<lambda_7777bce6b2f8c936911f934f8298dc43>@@AEAV<lambda_f03950bc5685219e0bcd2087efbe011e>@@V<lambda_3883c3dff614d5e0c5f61bb1ac94921c>@@@?$__crt_seh_guarded_call@H@@QEAAH$$QEAV<lambda_7777bce6b2f8c936911f934f8298dc43>@@AEAV<lambda_f03950bc5685219e0bcd2087efbe011e>@@$$QEAV<lambda_3883c3dff614d5e0c5f61bb1ac94921c>@@@Z 000000018000dc30 f   libucrt:onexit.obj
 0001:0000cc6c       ??R<lambda_f03950bc5685219e0bcd2087efbe011e>@@QEBAHXZ 000000018000dc6c f   libucrt:onexit.obj
 0001:0000cde8       initialize_global_variables 000000018000dde8 f   libucrt:initialization.obj
 0001:0000cdfc       initialize_c               000000018000ddfc f   libucrt:initialization.obj
 0001:0000ce20       initialize_environment     000000018000de20 f   libucrt:initialization.obj
 0001:0000ce20       initialize_global_state_isolation 000000018000de20 f   libucrt:initialization.obj
 0001:0000ce20       report_memory_leaks        000000018000de20 f   libucrt:initialization.obj
 0001:0000ce20       uninitialize_c             000000018000de20 f   libucrt:initialization.obj
 0001:0000ce20       uninitialize_global_state_isolation 000000018000de20 f   libucrt:initialization.obj
 0001:0000ce24       uninitialize_environment   000000018000de24 f   libucrt:initialization.obj
 0001:0000ce34       initialize_pointers        000000018000de34 f   libucrt:initialization.obj
 0001:0000ce74       uninitialize_vcruntime     000000018000de74 f   libucrt:initialization.obj
 0001:0000ce7c       uninitialize_allocated_memory 000000018000de7c f   libucrt:initialization.obj
 0001:0000cebc       uninitialize_allocated_io_buffers 000000018000debc f   libucrt:initialization.obj
 0001:0000d070       $$000000                   000000018000e070     libucrt:strncmp.obj
 0001:0000d558       ??$?RV<lambda_0ae27a3a962d80f24befdcbee591983d>@@AEAV<lambda_8d0ee55de4b1038c4002e0adecdf1839>@@V<lambda_dc504788e8f1664fe9b84e20bfb512f2>@@@?$__crt_seh_guarded_call@X@@QEAAX$$QEAV<lambda_0ae27a3a962d80f24befdcbee591983d>@@AEAV<lambda_8d0ee55de4b1038c4002e0adecdf1839>@@$$QEAV<lambda_dc504788e8f1664fe9b84e20bfb512f2>@@@Z 000000018000e558 f   libucrt:per_thread_data.obj
 0001:0000d598       ??$?RV<lambda_2d41944a1d46af3157314b8a01080d33>@@AEAV<lambda_8f455de75cd7d7f24b4096f044d8b9e6>@@V<lambda_aa500f224e6afead328df44964fe2772>@@@?$__crt_seh_guarded_call@X@@QEAAX$$QEAV<lambda_2d41944a1d46af3157314b8a01080d33>@@AEAV<lambda_8f455de75cd7d7f24b4096f044d8b9e6>@@$$QEAV<lambda_aa500f224e6afead328df44964fe2772>@@@Z 000000018000e598 f   libucrt:per_thread_data.obj
 0001:0000d5d8       ??$?RV<lambda_aa87e3671a710a21b5dc78c0bdf72e11>@@AEAV<lambda_92619d2358a28f41a33ba319515a20b9>@@V<lambda_6992ecaafeb10aed2b74cb1fae11a551>@@@?$__crt_seh_guarded_call@X@@QEAAX$$QEAV<lambda_aa87e3671a710a21b5dc78c0bdf72e11>@@AEAV<lambda_92619d2358a28f41a33ba319515a20b9>@@$$QEAV<lambda_6992ecaafeb10aed2b74cb1fae11a551>@@@Z 000000018000e5d8 f   libucrt:per_thread_data.obj
 0001:0000d620       ??$?RV<lambda_f2e299630e499de9f9a165e60fcd3db5>@@AEAV<lambda_2ae9d31cdba2644fcbeaf08da7c24588>@@V<lambda_40d01ff24d0e7b3814fdbdcee8eab3c7>@@@?$__crt_seh_guarded_call@X@@QEAAX$$QEAV<lambda_f2e299630e499de9f9a165e60fcd3db5>@@AEAV<lambda_2ae9d31cdba2644fcbeaf08da7c24588>@@$$QEAV<lambda_40d01ff24d0e7b3814fdbdcee8eab3c7>@@@Z 000000018000e620 f   libucrt:per_thread_data.obj
 0001:0000d680       ?construct_ptd_array@@YAXQEAU__acrt_ptd@@@Z 000000018000e680 f   libucrt:per_thread_data.obj
 0001:0000d750       ?destroy_fls@@YAXPEAX@Z    000000018000e750 f   libucrt:per_thread_data.obj
 0001:0000d770       ?destroy_ptd_array@@YAXQEAU__acrt_ptd@@@Z 000000018000e770 f   libucrt:per_thread_data.obj
 0001:0000d868       ?replace_current_thread_locale_nolock@@YAXQEAU__acrt_ptd@@QEAU__crt_locale_data@@@Z 000000018000e868 f   libucrt:per_thread_data.obj
 0001:0000dc24       ??$?RV<lambda_410d79af7f07d98d83a3f525b3859a53>@@AEAV<lambda_3e16ef9562a7dcce91392c22ab16ea36>@@V<lambda_38119f0e861e05405d8a144b9b982f0a>@@@?$__crt_seh_guarded_call@X@@QEAAX$$QEAV<lambda_410d79af7f07d98d83a3f525b3859a53>@@AEAV<lambda_3e16ef9562a7dcce91392c22ab16ea36>@@$$QEAV<lambda_38119f0e861e05405d8a144b9b982f0a>@@@Z 000000018000ec24 f   libucrt:wsetlocale.obj
 0001:0000e3d0       ?fp_format_a@@YAHQEBNPEAD_KQEAD2H_NIQEAU__crt_locale_pointers@@@Z 000000018000f3d0 f   libucrt:cvt.obj
 0001:0000e740       ?fp_format_e@@YAHQEBNQEAD_K12H_NIQEAU__crt_locale_pointers@@@Z 000000018000f740 f   libucrt:cvt.obj
 0001:0000e81c       ?fp_format_e_internal@@YAHQEAD_KH_NIQEAU_strflt@@2QEAU__crt_locale_pointers@@@Z 000000018000f81c f   libucrt:cvt.obj
 0001:0000e9f0       ?fp_format_f_internal@@YAHQEAD_KHQEAU_strflt@@_NQEAU__crt_locale_pointers@@@Z 000000018000f9f0 f   libucrt:cvt.obj
 0001:0000eb34       ?fp_format_g@@YAHQEBNQEAD_K12H_NIQEAU__crt_locale_pointers@@@Z 000000018000fb34 f   libucrt:cvt.obj
 0001:0000f3f4       ?initialize_inherited_file_handles_nolock@@YAXXZ 00000001800103f4 f   libucrt:ioinit.obj
 0001:0000f4e4       ?initialize_stdio_handles_nolock@@YAXXZ 00000001800104e4 f   libucrt:ioinit.obj
 0001:0000f674       ??$common_xtox@K_W@@YAHKQEA_W_KI_N@Z 0000000180010674 f   libucrt:xtoa.obj
 0001:0000f748       ??$common_xtox_s@K_W@@YAHKQEA_W_KI_N@Z 0000000180010748 f   libucrt:xtoa.obj
 0001:0000fcd4       ??$?RV<lambda_842d9ff0dc9ef11c61343bbaebe7f885>@@AEAV<lambda_c5860995281e5c4ce005b3de8f5874ee>@@V<lambda_d90129c13df834fdcbf8d2b88dafcf2d>@@@?$__crt_seh_guarded_call@X@@QEAAX$$QEAV<lambda_842d9ff0dc9ef11c61343bbaebe7f885>@@AEAV<lambda_c5860995281e5c4ce005b3de8f5874ee>@@$$QEAV<lambda_d90129c13df834fdcbf8d2b88dafcf2d>@@@Z 0000000180010cd4 f   libucrt:fflush.obj
 0001:0000fd70       ??$?RV<lambda_886d6c58226a84441f68b9f2b8217b83>@@AEAV<lambda_ab61a845afdef5b7c387490eaf3616ee>@@V<lambda_f7f22ab5edc0698d5f6905b0d3f44752>@@@?$__crt_seh_guarded_call@X@@QEAAX$$QEAV<lambda_886d6c58226a84441f68b9f2b8217b83>@@AEAV<lambda_ab61a845afdef5b7c387490eaf3616ee>@@$$QEAV<lambda_f7f22ab5edc0698d5f6905b0d3f44752>@@@Z 0000000180010d70 f   libucrt:fflush.obj
 0001:0000fe50       ??$?RV<lambda_c376a267cfb53b6959b3b692ec76b120>@@AEAV<lambda_9a32fed5bf61b6b509b2d3f6003082a1>@@V<lambda_572fbb9fa0ab338edf41edfd4b5fcc8d>@@@?$__crt_seh_guarded_call@H@@QEAAH$$QEAV<lambda_c376a267cfb53b6959b3b692ec76b120>@@AEAV<lambda_9a32fed5bf61b6b509b2d3f6003082a1>@@$$QEAV<lambda_572fbb9fa0ab338edf41edfd4b5fcc8d>@@@Z 0000000180010e50 f   libucrt:fflush.obj
 0001:0000fe90       ?common_flush_all@@YAH_N@Z 0000000180010e90 f   libucrt:fflush.obj
 0001:00010028       ??$?RV<lambda_84ec643ea9557e2f7dc01bb0e9624395>@@AEAV<lambda_ca71763b3c0644891230e4f79ea54fa6>@@V<lambda_439a761618c59b0600e24586724d733b>@@@?$__crt_seh_guarded_call@H@@QEAAH$$QEAV<lambda_84ec643ea9557e2f7dc01bb0e9624395>@@AEAV<lambda_ca71763b3c0644891230e4f79ea54fa6>@@$$QEAV<lambda_439a761618c59b0600e24586724d733b>@@@Z 0000000180011028 f   libucrt:setvbuf.obj
 0001:00010068       ??R<lambda_ca71763b3c0644891230e4f79ea54fa6>@@QEBAHXZ 0000000180011068 f   libucrt:setvbuf.obj
 0001:000101e4       ??$?RV<lambda_450d765d439847d4c735a33c368b5fc0>@@AEAV<lambda_44731a7d0e6d81c3e6aa82d741081786>@@V<lambda_601a2a7da3b7a96e9554ac7215c4b07c>@@@?$__crt_seh_guarded_call@P6AXH@Z@@QEAAP6AXH@Z$$QEAV<lambda_450d765d439847d4c735a33c368b5fc0>@@AEAV<lambda_44731a7d0e6d81c3e6aa82d741081786>@@$$QEAV<lambda_601a2a7da3b7a96e9554ac7215c4b07c>@@@Z 00000001800111e4 f   libucrt:signal.obj
 0001:000107f8       ?<lambda_invoker_cdecl>@<lambda_a1ce4c8ae42411fd470c77163914f50e>@@CAHPEBX0@Z 00000001800117f8 f   libucrt:argv_wildcards.obj
 0001:00010b10       ??$common_expand_argv_wildcards@D@@YAHQEAPEADQEAPEAPEAD@Z 0000000180011b10 f   libucrt:argv_wildcards.obj
 0001:00010d1c       ??$copy_and_add_argument_to_buffer@D@@YAHQEBD0_KAEAV?$argument_list@D@?A0x5f5c8891@@@Z 0000000180011d1c f   libucrt:argv_wildcards.obj
 0001:00010ea4       ??$expand_argument_wildcards@D@@YAHQEAD0AEAV?$argument_list@D@?A0x5f5c8891@@@Z 0000000180011ea4 f   libucrt:argv_wildcards.obj
 0001:000111bc       ??$?RV<lambda_efdfa57d1f175319df784efa44bb7b81>@@AEAV<lambda_5f0a4c1567f8adc6734073e5d1e1b35c>@@V<lambda_2e8a7d3640ea6ccb4c2413664c2db6fd>@@@?$__crt_seh_guarded_call@X@@QEAAX$$QEAV<lambda_efdfa57d1f175319df784efa44bb7b81>@@AEAV<lambda_5f0a4c1567f8adc6734073e5d1e1b35c>@@$$QEAV<lambda_2e8a7d3640ea6ccb4c2413664c2db6fd>@@@Z 00000001800121bc f   libucrt:mbctype.obj
 0001:00011378       ?getSystemCP@@YAHH@Z       0000000180012378 f   libucrt:mbctype.obj
 0001:000113f8       ?setSBCS@@YAXPEAU__crt_multibyte_data@@@Z 00000001800123f8 f   libucrt:mbctype.obj
 0001:00011488       ?setSBUpLow@@YAXPEAU__crt_multibyte_data@@@Z 0000000180012488 f   libucrt:mbctype.obj
 0001:0001166c       ?setmbcp_internal@@YAHH_NQEAU__acrt_ptd@@QEAPEAU__crt_multibyte_data@@@Z 000000018001266c f   libucrt:mbctype.obj
 0001:00011830       ?update_thread_multibyte_data_internal@@YAPEAU__crt_multibyte_data@@QEAU__acrt_ptd@@QEAPEAU1@@Z 0000000180012830 f   libucrt:mbctype.obj
 0001:00011c20       ?x_ismbbtype_l@@YAHPEAU__crt_locale_pointers@@IHH@Z 0000000180012c20 f   libucrt:ismbbyte.obj
 0001:00011f64       ?try_get_function@@YAPEAXW4function_id@?A0x391cf84c@@QEBDQEBW4module_id@2@2@Z 0000000180012f64 f   libucrt:winapi_thunks.obj
 0001:00013014       ?free_crt_array_internal@@YAXQEAPEBX_K@Z 0000000180014014 f   libucrt:inittime.obj
 0001:00014b80       memcpy_s                   0000000180015b80 f   libucrt:cfout.obj
 0001:00014c08       ??$write_buffer_nolock@D@@YA_NDV__crt_stdio_stream@@@Z 0000000180015c08 f   libucrt:_flsbuf.obj
 0001:00014cec       ??$write_buffer_nolock@_W@@YA_N_WV__crt_stdio_stream@@@Z 0000000180015cec f   libucrt:_flsbuf.obj
 0001:00014dd4       ?stream_is_at_end_of_file_nolock@@YA_NV__crt_stdio_stream@@@Z 0000000180015dd4 f   libucrt:_flsbuf.obj
 0001:000154a0       ??$?RV<lambda_a37b2b86f63e897a80ea819b0eb08c01>@@AEAV<lambda_38ce7e780aa69e748d6df282ebc68efe>@@V<lambda_99fb1378e971ab6e7edea83e3a7a83a2>@@@?$__crt_seh_guarded_call@H@@QEAAH$$QEAV<lambda_a37b2b86f63e897a80ea819b0eb08c01>@@AEAV<lambda_38ce7e780aa69e748d6df282ebc68efe>@@$$QEAV<lambda_99fb1378e971ab6e7edea83e3a7a83a2>@@@Z 00000001800164a0 f   libucrt:commit.obj
 0001:000155c0       ?write_double_translated_ansi_nolock@@YA?AUwrite_result@?A0x17268360@@HQEBDI@Z 00000001800165c0 f   libucrt:write.obj
 0001:00015a90       ?write_text_ansi_nolock@@YA?AUwrite_result@?A0x17268360@@HQEBDI@Z 0000000180016a90 f   libucrt:write.obj
 0001:00015b94       ?write_text_utf16le_nolock@@YA?AUwrite_result@?A0x17268360@@HQEBDI@Z 0000000180016b94 f   libucrt:write.obj
 0001:00015cb0       ?write_text_utf8_nolock@@YA?AUwrite_result@?A0x17268360@@HQEBDI@Z 0000000180016cb0 f   libucrt:write.obj
 0001:000165a0       fallbackMethod             00000001800175a0 f   libucrt:strpbrk.obj
 0001:00016964       $LN78                      0000000180017964     libucrt:strpbrk.obj
 0001:000169a0       $LN77                      00000001800179a0     libucrt:strpbrk.obj
 0001:000169e0       $LN76                      00000001800179e0     libucrt:strpbrk.obj
 0001:00016abc       ?__acrt_LCMapStringA_stat@@YAHPEAU__crt_locale_pointers@@PEB_WKPEBDHPEADHHH@Z 0000000180017abc f   libucrt:lcmapstringa.obj
 0001:00016e6c       ?initialize_multibyte@@YAHXZ 0000000180017e6c f   libucrt:multibyte_initializer.obj
 0001:000173a0       $$000000                   00000001800183a0     libucrt:log10.obj
 0001:0001794c       ??$common_lseek@_J@@YA_JH_JH@Z 000000018001894c f   libucrt:lseek.obj
 0001:00017a3c       ??$common_lseek_nolock@_J@@YA_JH_JH@Z 0000000180018a3c f   libucrt:lseek.obj
 0001:00018010       _call_matherr              0000000180019010 f   libucrt:libm_error.obj
 0001:00018078       _exception_enabled         0000000180019078 f   libucrt:libm_error.obj
 0001:00018310       _log_special_common        0000000180019310 f   libucrt:log_special.obj
 0001:000183a8       ??$?RV<lambda_751a882b2c74d4b022dec766aa51a29a>@@AEAV<lambda_628dfdc04ba53c8bfc02c9951375f3f5>@@V<lambda_f6c7be5f7998530c34de24c7437d6b54>@@@?$__crt_seh_guarded_call@H@@QEAAH$$QEAV<lambda_751a882b2c74d4b022dec766aa51a29a>@@AEAV<lambda_628dfdc04ba53c8bfc02c9951375f3f5>@@$$QEAV<lambda_f6c7be5f7998530c34de24c7437d6b54>@@@Z 00000001800193a8 f   libucrt:close.obj
 0001:000186d0       $$000000                   00000001800196d0     libucrt:fpsr.obj
 0001:00019340       $$000000                   000000018001a340     LIBCMT:chkstk.obj
 0001:000193b0       $$000000                   000000018001a3b0     libvcruntime:memcmp.obj
 0001:000195c0       $$000000                   000000018001a5c0     LIBCMT:guard_dispatch.obj
 0001:000195e0       ?fin$0@?0??dllmain_crt_process_attach@@YAHQEAUHINSTANCE__@@QEAX@Z@4HA 000000018001a5e0 f   LIBCMT:dll_dllmain.obj
 0001:000195f7       ?fin$0@?0??dllmain_crt_process_detach@@YAH_N@Z@4HA 000000018001a5f7 f   LIBCMT:dll_dllmain.obj
 0001:00019610       ?fin$1@?0??dllmain_crt_process_detach@@YAH_N@Z@4HA 000000018001a610 f   LIBCMT:dll_dllmain.obj
 0001:00019624       ?filt$0@?0??dllmain_dispatch@@YAHQEAUHINSTANCE__@@KQEAX@Z@4HA 000000018001a624 f   LIBCMT:dll_dllmain.obj
 0001:0001965a       __scrt_is_nonwritable_in_current_image$filt$0 000000018001a65a f   LIBCMT:utility.obj
 0001:00019672       __DestructExceptionObject$filt$0 000000018001a672 f   libvcruntime:ehhelpers.obj
 0001:00019708       ?fin$0@?0???$?RV<lambda_842d9ff0dc9ef11c61343bbaebe7f885>@@AEAV<lambda_c5860995281e5c4ce005b3de8f5874ee>@@V<lambda_d90129c13df834fdcbf8d2b88dafcf2d>@@@?$__crt_seh_guarded_call@X@@QEAAX$$QEAV<lambda_842d9ff0dc9ef11c61343bbaebe7f885>@@AEAV<lambda_c5860995281e5c4ce005b3de8f5874ee>@@$$QEAV<lambda_d90129c13df834fdcbf8d2b88dafcf2d>@@@Z@4HA 000000018001a708 f   libucrt:fflush.obj
 0001:00019708       ?fin$0@?0???$?RV<lambda_c376a267cfb53b6959b3b692ec76b120>@@AEAV<lambda_9a32fed5bf61b6b509b2d3f6003082a1>@@V<lambda_572fbb9fa0ab338edf41edfd4b5fcc8d>@@@?$__crt_seh_guarded_call@H@@QEAAH$$QEAV<lambda_c376a267cfb53b6959b3b692ec76b120>@@AEAV<lambda_9a32fed5bf61b6b509b2d3f6003082a1>@@$$QEAV<lambda_572fbb9fa0ab338edf41edfd4b5fcc8d>@@@Z@4HA 000000018001a708 f   libucrt:fflush.obj
 0001:00019708       ?fin$0@?0???$?RV<lambda_676bd5779251ec186b530f0a904b4b35>@@AEAV<lambda_b579ea784fd840951dfbcbdaebf709fd>@@V<lambda_10027885da78ada7fb00668d7e2e96b5>@@@?$__crt_seh_guarded_call@H@@QEAAH$$QEAV<lambda_676bd5779251ec186b530f0a904b4b35>@@AEAV<lambda_b579ea784fd840951dfbcbdaebf709fd>@@$$QEAV<lambda_10027885da78ada7fb00668d7e2e96b5>@@@Z@4HA 000000018001a708 f   libucrt:output.obj
 0001:00019708       ?fin$0@?0???$?RV<lambda_84ec643ea9557e2f7dc01bb0e9624395>@@AEAV<lambda_ca71763b3c0644891230e4f79ea54fa6>@@V<lambda_439a761618c59b0600e24586724d733b>@@@?$__crt_seh_guarded_call@H@@QEAAH$$QEAV<lambda_84ec643ea9557e2f7dc01bb0e9624395>@@AEAV<lambda_ca71763b3c0644891230e4f79ea54fa6>@@$$QEAV<lambda_439a761618c59b0600e24586724d733b>@@@Z@4HA 000000018001a708 f   libucrt:setvbuf.obj
 0001:00019723       _query_new_handler$fin$0   000000018001a723 f   libucrt:new_handler.obj
 0001:00019739       ?fin$0@?0???$?RV<lambda_0ae27a3a962d80f24befdcbee591983d>@@AEAV<lambda_8d0ee55de4b1038c4002e0adecdf1839>@@V<lambda_dc504788e8f1664fe9b84e20bfb512f2>@@@?$__crt_seh_guarded_call@X@@QEAAX$$QEAV<lambda_0ae27a3a962d80f24befdcbee591983d>@@AEAV<lambda_8d0ee55de4b1038c4002e0adecdf1839>@@$$QEAV<lambda_dc504788e8f1664fe9b84e20bfb512f2>@@@Z@4HA 000000018001a739 f   libucrt:per_thread_data.obj
 0001:00019739       ?fin$0@?0???$?RV<lambda_2d41944a1d46af3157314b8a01080d33>@@AEAV<lambda_8f455de75cd7d7f24b4096f044d8b9e6>@@V<lambda_aa500f224e6afead328df44964fe2772>@@@?$__crt_seh_guarded_call@X@@QEAAX$$QEAV<lambda_2d41944a1d46af3157314b8a01080d33>@@AEAV<lambda_8f455de75cd7d7f24b4096f044d8b9e6>@@$$QEAV<lambda_aa500f224e6afead328df44964fe2772>@@@Z@4HA 000000018001a739 f   libucrt:per_thread_data.obj
 0001:00019739       ?fin$0@?0???$?RV<lambda_aa87e3671a710a21b5dc78c0bdf72e11>@@AEAV<lambda_92619d2358a28f41a33ba319515a20b9>@@V<lambda_6992ecaafeb10aed2b74cb1fae11a551>@@@?$__crt_seh_guarded_call@X@@QEAAX$$QEAV<lambda_aa87e3671a710a21b5dc78c0bdf72e11>@@AEAV<lambda_92619d2358a28f41a33ba319515a20b9>@@$$QEAV<lambda_6992ecaafeb10aed2b74cb1fae11a551>@@@Z@4HA 000000018001a739 f   libucrt:per_thread_data.obj
 0001:00019739       ?fin$0@?0???$?RV<lambda_f2e299630e499de9f9a165e60fcd3db5>@@AEAV<lambda_2ae9d31cdba2644fcbeaf08da7c24588>@@V<lambda_40d01ff24d0e7b3814fdbdcee8eab3c7>@@@?$__crt_seh_guarded_call@X@@QEAAX$$QEAV<lambda_f2e299630e499de9f9a165e60fcd3db5>@@AEAV<lambda_2ae9d31cdba2644fcbeaf08da7c24588>@@$$QEAV<lambda_40d01ff24d0e7b3814fdbdcee8eab3c7>@@@Z@4HA 000000018001a739 f   libucrt:per_thread_data.obj
 0001:00019739       ?fin$0@?0???$?RV<lambda_efdfa57d1f175319df784efa44bb7b81>@@AEAV<lambda_5f0a4c1567f8adc6734073e5d1e1b35c>@@V<lambda_2e8a7d3640ea6ccb4c2413664c2db6fd>@@@?$__crt_seh_guarded_call@X@@QEAAX$$QEAV<lambda_efdfa57d1f175319df784efa44bb7b81>@@AEAV<lambda_5f0a4c1567f8adc6734073e5d1e1b35c>@@$$QEAV<lambda_2e8a7d3640ea6ccb4c2413664c2db6fd>@@@Z@4HA 000000018001a739 f   libucrt:mbctype.obj
 0001:00019739       ?fin$0@?0???$?RV<lambda_450d765d439847d4c735a33c368b5fc0>@@AEAV<lambda_44731a7d0e6d81c3e6aa82d741081786>@@V<lambda_601a2a7da3b7a96e9554ac7215c4b07c>@@@?$__crt_seh_guarded_call@P6AXH@Z@@QEAAP6AXH@Z$$QEAV<lambda_450d765d439847d4c735a33c368b5fc0>@@AEAV<lambda_44731a7d0e6d81c3e6aa82d741081786>@@$$QEAV<lambda_601a2a7da3b7a96e9554ac7215c4b07c>@@@Z@4HA 000000018001a739 f   libucrt:signal.obj
 0001:00019739       ?fin$0@?0???$?RV<lambda_d80eeec6fff315bfe5c115232f3240e3>@@AEAV<lambda_6e4b09c48022b2350581041d5f6b0c4c>@@V<lambda_2358e3775559c9db80273638284d5e45>@@@?$__crt_seh_guarded_call@X@@QEAAX$$QEAV<lambda_d80eeec6fff315bfe5c115232f3240e3>@@AEAV<lambda_6e4b09c48022b2350581041d5f6b0c4c>@@$$QEAV<lambda_2358e3775559c9db80273638284d5e45>@@@Z@4HA 000000018001a739 f   libucrt:exit.obj
 0001:00019739       ?fin$0@?0???$?RV<lambda_7777bce6b2f8c936911f934f8298dc43>@@AEAV<lambda_f03950bc5685219e0bcd2087efbe011e>@@V<lambda_3883c3dff614d5e0c5f61bb1ac94921c>@@@?$__crt_seh_guarded_call@H@@QEAAH$$QEAV<lambda_7777bce6b2f8c936911f934f8298dc43>@@AEAV<lambda_f03950bc5685219e0bcd2087efbe011e>@@$$QEAV<lambda_3883c3dff614d5e0c5f61bb1ac94921c>@@@Z@4HA 000000018001a739 f   libucrt:onexit.obj
 0001:00019753       ?filt$0@?0???R<lambda_6e4b09c48022b2350581041d5f6b0c4c>@@QEBA@XZ@4HA 000000018001a753 f   libucrt:exit.obj
 0001:0001976e       ?fin$0@?0???$?RV<lambda_410d79af7f07d98d83a3f525b3859a53>@@AEAV<lambda_3e16ef9562a7dcce91392c22ab16ea36>@@V<lambda_38119f0e861e05405d8a144b9b982f0a>@@@?$__crt_seh_guarded_call@X@@QEAAX$$QEAV<lambda_410d79af7f07d98d83a3f525b3859a53>@@AEAV<lambda_3e16ef9562a7dcce91392c22ab16ea36>@@$$QEAV<lambda_38119f0e861e05405d8a144b9b982f0a>@@@Z@4HA 000000018001a76e f   libucrt:wsetlocale.obj
 0001:00019788       __acrt_initialize_lowio$fin$0 000000018001a788 f   libucrt:ioinit.obj
 0001:00019788       __acrt_lowio_ensure_fh_exists$fin$0 000000018001a788 f   libucrt:osfinfo.obj
 0001:000197a1       ?fin$0@?0???$?RV<lambda_886d6c58226a84441f68b9f2b8217b83>@@AEAV<lambda_ab61a845afdef5b7c387490eaf3616ee>@@V<lambda_f7f22ab5edc0698d5f6905b0d3f44752>@@@?$__crt_seh_guarded_call@X@@QEAAX$$QEAV<lambda_886d6c58226a84441f68b9f2b8217b83>@@AEAV<lambda_ab61a845afdef5b7c387490eaf3616ee>@@$$QEAV<lambda_f7f22ab5edc0698d5f6905b0d3f44752>@@@Z@4HA 000000018001a7a1 f   libucrt:fflush.obj
 0001:000197be       raise$fin$0                000000018001a7be f   libucrt:signal.obj
 0001:000197df       ?fin$0@?0??update_thread_multibyte_data_internal@@YAPEAU__crt_multibyte_data@@QEAU__acrt_ptd@@QEAPEAU1@@Z@4HA 000000018001a7df f   libucrt:mbctype.obj
 0001:000197f8       __acrt_update_thread_locale_data$fin$0 000000018001a7f8 f   libucrt:locale_refcounting.obj
 0001:00019811       _fcloseall$fin$0           000000018001a811 f   libucrt:closeall.obj
 0001:0001982a       ?fin$0@?0???$?RV<lambda_751a882b2c74d4b022dec766aa51a29a>@@AEAV<lambda_628dfdc04ba53c8bfc02c9951375f3f5>@@V<lambda_f6c7be5f7998530c34de24c7437d6b54>@@@?$__crt_seh_guarded_call@H@@QEAAH$$QEAV<lambda_751a882b2c74d4b022dec766aa51a29a>@@AEAV<lambda_628dfdc04ba53c8bfc02c9951375f3f5>@@$$QEAV<lambda_f6c7be5f7998530c34de24c7437d6b54>@@@Z@4HA 000000018001a82a f   libucrt:close.obj
 0001:0001982a       ?fin$0@?0???$?RV<lambda_a37b2b86f63e897a80ea819b0eb08c01>@@AEAV<lambda_38ce7e780aa69e748d6df282ebc68efe>@@V<lambda_99fb1378e971ab6e7edea83e3a7a83a2>@@@?$__crt_seh_guarded_call@H@@QEAAH$$QEAV<lambda_a37b2b86f63e897a80ea819b0eb08c01>@@AEAV<lambda_38ce7e780aa69e748d6df282ebc68efe>@@$$QEAV<lambda_99fb1378e971ab6e7edea83e3a7a83a2>@@@Z@4HA 000000018001a82a f   libucrt:commit.obj
 0001:00019844       ?fin$0@?0???$common_lseek@_J@@YA_JH_JH@Z@4HA 000000018001a844 f   libucrt:lseek.obj
 0001:00019844       _write$fin$0               000000018001a844 f   libucrt:write.obj
 0001:0001985b       fclose$fin$0               000000018001a85b f   libucrt:fclose.obj
 0001:00019873       _ctrlfp$filt$0             000000018001a873 f   libucrt:fpctrl.obj
 0001:000198a0       _IsNonwritableInCurrentImage$filt$0 000000018001a8a0 f   LIBCMT:pesect.obj
 0002:00000318       GS_ExceptionPointers       000000018001b318     LIBCMT:gs_report.obj
 0002:000003e0       ?tokenTable@@3QBUStringLiteral@@B 000000018001b3e0     libvcruntime:undname.obj
 0002:000004e0       ?nameTable@@3QBUStringLiteral@@B 000000018001b4e0     libvcruntime:undname.obj
 0002:00000a10       ?rttiTable@@3QBUStringLiteral@@B 000000018001ba10     libvcruntime:undname.obj
 0002:00000a60       ?IndirectionName@@3QBUStringLiteral@@B 000000018001ba60     libvcruntime:undname.obj
 0002:00000ac0       ?PrefixName@@3QBUStringLiteral@@B 000000018001bac0     libvcruntime:undname.obj
 0002:00001198       ?module_names@?A0x5a6460af@@3QBQEB_WB 000000018001c198     libvcruntime:winapi_downlevel.obj
 0002:00001258       ?candidate_modules@?1??try_get_FlsAlloc@@YAP6AKP6AXPEAX@Z@ZXZ@4QBW4module_id@?A0x5a6460af@@B 000000018001c258     libvcruntime:winapi_downlevel.obj
 0002:00001270       ?candidate_modules@?1??try_get_FlsFree@@YAP6AHK@ZXZ@4QBW4module_id@?A0x5a6460af@@B 000000018001c270     libvcruntime:winapi_downlevel.obj
 0002:00001280       ?candidate_modules@?1??try_get_FlsGetValue@@YAP6APEAXK@ZXZ@4QBW4module_id@?A0x5a6460af@@B 000000018001c280     libvcruntime:winapi_downlevel.obj
 0002:00001298       ?candidate_modules@?1??try_get_FlsSetValue@@YAP6AHKPEAX@ZXZ@4QBW4module_id@?A0x5a6460af@@B 000000018001c298     libvcruntime:winapi_downlevel.obj
 0002:000012b0       ?candidate_modules@?1??try_get_InitializeCriticalSectionEx@@YAP6AHPEAU_RTL_CRITICAL_SECTION@@KK@ZXZ@4QBW4module_id@?A0x5a6460af@@B 000000018001c2b0     libvcruntime:winapi_downlevel.obj
 0002:000013c0       ?errtable@@3QBUerrentry@?A0x31fdb9ec@@B 000000018001c3c0     libucrt:errno.obj
 0002:00001950       __acrt_initializers        000000018001c950     libucrt:initialization.obj
 0002:000028e0       ?strings@?1??fp_format_nan_or_infinity@@YAHW4__acrt_fp_class@@_NPEAD_K1@Z@4QAY03QEBDA 000000018001d8e0     libucrt:cvt.obj
 0002:00002ec0       ?_mb_locale_names@@3QBQEB_WB 000000018001dec0     libucrt:mbctype.obj
 0002:00002f20       ?module_names@?A0x391cf84c@@3QBQEB_WB 000000018001df20     libucrt:winapi_thunks.obj
 0002:00003428       ?candidate_modules@?1??try_get_AreFileApisANSI@@YAP6AHXZXZ@4QBW4module_id@?A0x391cf84c@@B 000000018001e428     libucrt:winapi_thunks.obj
 0002:00003440       ?candidate_modules@?1??try_get_FlsAlloc@@YAP6AKP6AXPEAX@Z@ZXZ@4QBW4module_id@?A0x391cf84c@@B 000000018001e440     libucrt:winapi_thunks.obj
 0002:00003448       ?candidate_modules@?1??try_get_FlsFree@@YAP6AHK@ZXZ@4QBW4module_id@?A0x391cf84c@@B 000000018001e448     libucrt:winapi_thunks.obj
 0002:00003450       ?candidate_modules@?1??try_get_FlsGetValue@@YAP6APEAXK@ZXZ@4QBW4module_id@?A0x391cf84c@@B 000000018001e450     libucrt:winapi_thunks.obj
 0002:00003458       ?candidate_modules@?1??try_get_FlsSetValue@@YAP6AHKPEAX@ZXZ@4QBW4module_id@?A0x391cf84c@@B 000000018001e458     libucrt:winapi_thunks.obj
 0002:00003460       ?candidate_modules@?1??try_get_GetActiveWindow@@YAP6APEAUHWND__@@XZXZ@4QBW4module_id@?A0x391cf84c@@B 000000018001e460     libucrt:winapi_thunks.obj
 0002:00003478       ?candidate_modules@?1??try_get_GetLastActivePopup@@YAP6APEAUHWND__@@PEAU2@@ZXZ@4QBW4module_id@?A0x391cf84c@@B 000000018001e478     libucrt:winapi_thunks.obj
 0002:00003498       ?candidate_modules@?1??try_get_GetProcessWindowStation@@YAP6APEAUHWINSTA__@@XZXZ@4QBW4module_id@?A0x391cf84c@@B 000000018001e498     libucrt:winapi_thunks.obj
 0002:000034b8       ?candidate_modules@?1??try_get_GetUserObjectInformationW@@YAP6AHPEAXH0KPEAK@ZXZ@4QBW4module_id@?A0x391cf84c@@B 000000018001e4b8     libucrt:winapi_thunks.obj
 0002:000034e0       ?candidate_modules@?1??try_get_InitializeCriticalSectionEx@@YAP6AHPEAU_RTL_CRITICAL_SECTION@@KK@ZXZ@4QBW4module_id@?A0x391cf84c@@B 000000018001e4e0     libucrt:winapi_thunks.obj
 0002:000034e8       ?candidate_modules@?1??try_get_LCMapStringEx@@YAP6AHPEB_WK0HPEA_WHPEAU_nlsversioninfo@@PEAX_J@ZXZ@4QBW4module_id@?A0x391cf84c@@B 000000018001e4e8     libucrt:winapi_thunks.obj
 0002:00003500       ?candidate_modules@?1??try_get_LocaleNameToLCID@@YAP6AKPEB_WK@ZXZ@4QBW4module_id@?A0x391cf84c@@B 000000018001e500     libucrt:winapi_thunks.obj
 0002:00003520       ?candidate_modules@?1??try_get_MessageBoxA@@YAP6AHPEAUHWND__@@PEBD1I@ZXZ@4QBW4module_id@?A0x391cf84c@@B 000000018001e520     libucrt:winapi_thunks.obj
 0002:00003538       ?candidate_modules@?1??try_get_MessageBoxW@@YAP6AHPEAUHWND__@@PEB_W1I@ZXZ@4QBW4module_id@?A0x391cf84c@@B 000000018001e538     libucrt:winapi_thunks.obj
 0002:0000354c       ?candidate_modules@?1??try_get_AppPolicyGetProcessTerminationMethod@@YAP6AJPEAXPEAW4AppPolicyProcessTerminationMethod@@@ZXZ@4QBW4module_id@?A0x391cf84c@@B 000000018001e54c     libucrt:winapi_thunks.obj
 0002:00003578       ?candidate_modules@?1??try_get_AppPolicyGetShowDeveloperDiagnostic@@YAP6AJPEAXPEAW4AppPolicyShowDeveloperDiagnostic@@@ZXZ@4QBW4module_id@?A0x391cf84c@@B 000000018001e578     libucrt:winapi_thunks.obj
 0002:000035a4       ?candidate_modules@?1??try_get_AppPolicyGetWindowingModel@@YAP6AJPEAXPEAW4AppPolicyWindowingModel@@@ZXZ@4QBW4module_id@?A0x391cf84c@@B 000000018001e5a4     libucrt:winapi_thunks.obj
 0002:00003ee0       ?large_power_indices@?1??multiply_by_power_of_ten@__crt_strtox@@YA_NAEAUbig_integer@2@I@Z@4QBUunpack_index@?1??12@YA_N0I@Z@B 000000018001eee0     libucrt:cfout.obj
 0002:00003fc0       ?LcidToLocaleNameTable@?A0x881e4c05@@3QBULcidToLocaleName@1@B 000000018001efc0     libucrt:lcidtoname_downlevel.obj
 0002:00005a20       ?LocaleNameToIndexTable@?A0x881e4c05@@3QBULocaleNameIndex@1@B 0000000180020a20     libucrt:lcidtoname_downlevel.obj
 0002:000072c0       __real_ninf                00000001800222c0     libucrt:log10.obj
 0002:000072d0       __real_inf                 00000001800222d0     libucrt:log10.obj
 0002:000072e0       __real_neg_qnan            00000001800222e0     libucrt:log10.obj
 0002:000072f0       __real_qnanbit             00000001800222f0     libucrt:log10.obj
 0002:00007300       __int_1023                 0000000180022300     libucrt:log10.obj
 0002:00007310       __mask_001                 0000000180022310     libucrt:log10.obj
 0002:00007320       __mask_mant                0000000180022320     libucrt:log10.obj
 0002:00007330       __mask_mant_top8           0000000180022330     libucrt:log10.obj
 0002:00007340       __mask_mant9               0000000180022340     libucrt:log10.obj
 0002:00007350       __real_log10_e             0000000180022350     libucrt:log10.obj
 0002:00007360       __real_log10_e_lead        0000000180022360     libucrt:log10.obj
 0002:00007370       __real_log10_e_tail        0000000180022370     libucrt:log10.obj
 0002:00007380       __real_log10_2_lead        0000000180022380     libucrt:log10.obj
 0002:00007390       __real_log10_2_tail        0000000180022390     libucrt:log10.obj
 0002:000073a0       __real_two                 00000001800223a0     libucrt:log10.obj
 0002:000073b0       __real_one                 00000001800223b0     libucrt:log10.obj
 0002:000073c0       __real_half                00000001800223c0     libucrt:log10.obj
 0002:000073d0       __mask_100                 00000001800223d0     libucrt:log10.obj
 0002:000073e0       __real_1_over_512          00000001800223e0     libucrt:log10.obj
 0002:000073f0       __real_1_over_2            00000001800223f0     libucrt:log10.obj
 0002:00007400       __real_1_over_3            0000000180022400     libucrt:log10.obj
 0002:00007410       __real_1_over_4            0000000180022410     libucrt:log10.obj
 0002:00007420       __real_1_over_5            0000000180022420     libucrt:log10.obj
 0002:00007430       __real_1_over_6            0000000180022430     libucrt:log10.obj
 0002:00007440       __real_neg_1023            0000000180022440     libucrt:log10.obj
 0002:00007450       __mask_2045                0000000180022450     libucrt:log10.obj
 0002:00007460       __real_threshold           0000000180022460     libucrt:log10.obj
 0002:00007470       __real_near_one_lt         0000000180022470     libucrt:log10.obj
 0002:00007480       __real_near_one_gt         0000000180022480     libucrt:log10.obj
 0002:00007490       __real_min_norm            0000000180022490     libucrt:log10.obj
 0002:000074a0       __real_notsign             00000001800224a0     libucrt:log10.obj
 0002:000074b0       __real_ca1                 00000001800224b0     libucrt:log10.obj
 0002:000074c0       __real_ca2                 00000001800224c0     libucrt:log10.obj
 0002:000074d0       __real_ca3                 00000001800224d0     libucrt:log10.obj
 0002:000074e0       __real_ca4                 00000001800224e0     libucrt:log10.obj
 0002:000074f0       __mask_lower               00000001800224f0     libucrt:log10.obj
 0002:00007500       __flag_x_zero              0000000180022500     libucrt:log10.obj
 0002:00007504       __flag_x_neg               0000000180022504     libucrt:log10.obj
 0002:00007508       __flag_x_nan               0000000180022508     libucrt:log10.obj
 0002:00008d60       __real@433fffffffffffff    0000000180023d60     libucrt:fpsr.obj
 0002:00008d68       __real@c33fffffffffffff    0000000180023d68     libucrt:fpsr.obj
 0002:00009dc0       $unwind$_snprintf_s        0000000180024dc0     binding.obj
 0002:00009dd0       $unwind$?FunctionCallbackWrapper@imp@Nan@@YAXAEBV?$FunctionCallbackInfo@VValue@v8@@@v8@@@Z 0000000180024dd0     binding.obj
 0002:00009de4       $unwind$?ForceSet@Nan@@YA?AV?$Maybe@_N@1@V?$Local@VObject@v8@@@v8@@V?$Local@VValue@v8@@@4@1W4PropertyAttribute@4@@Z 0000000180024de4     binding.obj
 0002:00009df8       $unwind$?GetInt64@?A0x36d5b1ef@@YA_JV?$Local@VValue@v8@@@v8@@@Z 0000000180024df8     binding.obj
 0002:00009e00       $chain$0$?GetInt64@?A0x36d5b1ef@@YA_JV?$Local@VValue@v8@@@v8@@@Z 0000000180024e00     binding.obj
 0002:00009e14       $chain$1$?GetInt64@?A0x36d5b1ef@@YA_JV?$Local@VValue@v8@@@v8@@@Z 0000000180024e14     binding.obj
 0002:00009e24       $unwind$?Address@?A0x36d5b1ef@@YAXAEBV?$FunctionCallbackInfo@VValue@v8@@@Nan@@@Z 0000000180024e24     binding.obj
 0002:00009e30       $chain$1$?Address@?A0x36d5b1ef@@YAXAEBV?$FunctionCallbackInfo@VValue@v8@@@Nan@@@Z 0000000180024e30     binding.obj
 0002:00009e48       $chain$2$?Address@?A0x36d5b1ef@@YAXAEBV?$FunctionCallbackInfo@VValue@v8@@@Nan@@@Z 0000000180024e48     binding.obj
 0002:00009e5c       $chain$3$?Address@?A0x36d5b1ef@@YAXAEBV?$FunctionCallbackInfo@VValue@v8@@@Nan@@@Z 0000000180024e5c     binding.obj
 0002:00009e6c       $unwind$?HexAddress@?A0x36d5b1ef@@YAXAEBV?$FunctionCallbackInfo@VValue@v8@@@Nan@@@Z 0000000180024e6c     binding.obj
 0002:00009e84       $chain$0$?HexAddress@?A0x36d5b1ef@@YAXAEBV?$FunctionCallbackInfo@VValue@v8@@@Nan@@@Z 0000000180024e84     binding.obj
 0002:00009e98       $chain$1$?HexAddress@?A0x36d5b1ef@@YAXAEBV?$FunctionCallbackInfo@VValue@v8@@@Nan@@@Z 0000000180024e98     binding.obj
 0002:00009ea8       $unwind$?IsNull@?A0x36d5b1ef@@YAXAEBV?$FunctionCallbackInfo@VValue@v8@@@Nan@@@Z 0000000180024ea8     binding.obj
 0002:00009ea8       $unwind$?ReadCString@?A0x36d5b1ef@@YAXAEBV?$FunctionCallbackInfo@VValue@v8@@@Nan@@@Z 0000000180024ea8     binding.obj
 0002:00009ea8       $unwind$?ReadObject@?A0x36d5b1ef@@YAXAEBV?$FunctionCallbackInfo@VValue@v8@@@Nan@@@Z 0000000180024ea8     binding.obj
 0002:00009ea8       $unwind$?ReadPointer@?A0x36d5b1ef@@YAXAEBV?$FunctionCallbackInfo@VValue@v8@@@Nan@@@Z 0000000180024ea8     binding.obj
 0002:00009ea8       $unwind$?ReinterpretBuffer@?A0x36d5b1ef@@YAXAEBV?$FunctionCallbackInfo@VValue@v8@@@Nan@@@Z 0000000180024ea8     binding.obj
 0002:00009eb4       $chain$0$?IsNull@?A0x36d5b1ef@@YAXAEBV?$FunctionCallbackInfo@VValue@v8@@@Nan@@@Z 0000000180024eb4     binding.obj
 0002:00009ec8       $chain$1$?IsNull@?A0x36d5b1ef@@YAXAEBV?$FunctionCallbackInfo@VValue@v8@@@Nan@@@Z 0000000180024ec8     binding.obj
 0002:00009ed8       $unwind$?WrapPointer@?A0x36d5b1ef@@YA?AV?$Local@VValue@v8@@@v8@@PEAD_K@Z 0000000180024ed8     binding.obj
 0002:00009eec       $chain$0$?ReadObject@?A0x36d5b1ef@@YAXAEBV?$FunctionCallbackInfo@VValue@v8@@@Nan@@@Z 0000000180024eec     binding.obj
 0002:00009f00       $chain$1$?ReadObject@?A0x36d5b1ef@@YAXAEBV?$FunctionCallbackInfo@VValue@v8@@@Nan@@@Z 0000000180024f00     binding.obj
 0002:00009f10       $unwind$?WriteObject@?A0x36d5b1ef@@YAXAEBV?$FunctionCallbackInfo@VValue@v8@@@Nan@@@Z 0000000180024f10     binding.obj
 0002:00009f24       $chain$2$?WriteObject@?A0x36d5b1ef@@YAXAEBV?$FunctionCallbackInfo@VValue@v8@@@Nan@@@Z 0000000180024f24     binding.obj
 0002:00009f38       $chain$1$?ReadPointer@?A0x36d5b1ef@@YAXAEBV?$FunctionCallbackInfo@VValue@v8@@@Nan@@@Z 0000000180024f38     binding.obj
 0002:00009f50       $chain$2$?ReadPointer@?A0x36d5b1ef@@YAXAEBV?$FunctionCallbackInfo@VValue@v8@@@Nan@@@Z 0000000180024f50     binding.obj
 0002:00009f50       $chain$4$?ReadPointer@?A0x36d5b1ef@@YAXAEBV?$FunctionCallbackInfo@VValue@v8@@@Nan@@@Z 0000000180024f50     binding.obj
 0002:00009f50       $chain$6$?ReadPointer@?A0x36d5b1ef@@YAXAEBV?$FunctionCallbackInfo@VValue@v8@@@Nan@@@Z 0000000180024f50     binding.obj
 0002:00009f64       $unwind$?WritePointer@?A0x36d5b1ef@@YAXAEBV?$FunctionCallbackInfo@VValue@v8@@@Nan@@@Z 0000000180024f64     binding.obj
 0002:00009f70       $chain$0$?WritePointer@?A0x36d5b1ef@@YAXAEBV?$FunctionCallbackInfo@VValue@v8@@@Nan@@@Z 0000000180024f70     binding.obj
 0002:00009f84       $chain$2$?WritePointer@?A0x36d5b1ef@@YAXAEBV?$FunctionCallbackInfo@VValue@v8@@@Nan@@@Z 0000000180024f84     binding.obj
 0002:00009f98       $chain$3$?WritePointer@?A0x36d5b1ef@@YAXAEBV?$FunctionCallbackInfo@VValue@v8@@@Nan@@@Z 0000000180024f98     binding.obj
 0002:00009fac       $chain$4$?WritePointer@?A0x36d5b1ef@@YAXAEBV?$FunctionCallbackInfo@VValue@v8@@@Nan@@@Z 0000000180024fac     binding.obj
 0002:00009fbc       $unwind$?ReadInt64@?A0x36d5b1ef@@YAXAEBV?$FunctionCallbackInfo@VValue@v8@@@Nan@@@Z 0000000180024fbc     binding.obj
 0002:00009fbc       $unwind$?ReadUInt64@?A0x36d5b1ef@@YAXAEBV?$FunctionCallbackInfo@VValue@v8@@@Nan@@@Z 0000000180024fbc     binding.obj
 0002:00009fd4       $chain$0$?ReadInt64@?A0x36d5b1ef@@YAXAEBV?$FunctionCallbackInfo@VValue@v8@@@Nan@@@Z 0000000180024fd4     binding.obj
 0002:00009fe8       $chain$1$?ReadInt64@?A0x36d5b1ef@@YAXAEBV?$FunctionCallbackInfo@VValue@v8@@@Nan@@@Z 0000000180024fe8     binding.obj
 0002:00009ff8       $chain$2$?ReadInt64@?A0x36d5b1ef@@YAXAEBV?$FunctionCallbackInfo@VValue@v8@@@Nan@@@Z 0000000180024ff8     binding.obj
 0002:0000a00c       $chain$3$?ReadInt64@?A0x36d5b1ef@@YAXAEBV?$FunctionCallbackInfo@VValue@v8@@@Nan@@@Z 000000018002500c     binding.obj
 0002:0000a01c       $unwind$?WriteInt64@?A0x36d5b1ef@@YAXAEBV?$FunctionCallbackInfo@VValue@v8@@@Nan@@@Z 000000018002501c     binding.obj
 0002:0000a01c       $unwind$?WriteUInt64@?A0x36d5b1ef@@YAXAEBV?$FunctionCallbackInfo@VValue@v8@@@Nan@@@Z 000000018002501c     binding.obj
 0002:0000a038       $chain$1$?WriteInt64@?A0x36d5b1ef@@YAXAEBV?$FunctionCallbackInfo@VValue@v8@@@Nan@@@Z 0000000180025038     binding.obj
 0002:0000a050       $chain$2$?WriteInt64@?A0x36d5b1ef@@YAXAEBV?$FunctionCallbackInfo@VValue@v8@@@Nan@@@Z 0000000180025050     binding.obj
 0002:0000a060       $chain$0$?ReadUInt64@?A0x36d5b1ef@@YAXAEBV?$FunctionCallbackInfo@VValue@v8@@@Nan@@@Z 0000000180025060     binding.obj
 0002:0000a074       $chain$1$?ReadUInt64@?A0x36d5b1ef@@YAXAEBV?$FunctionCallbackInfo@VValue@v8@@@Nan@@@Z 0000000180025074     binding.obj
 0002:0000a084       $chain$2$?ReadUInt64@?A0x36d5b1ef@@YAXAEBV?$FunctionCallbackInfo@VValue@v8@@@Nan@@@Z 0000000180025084     binding.obj
 0002:0000a098       $chain$3$?ReadUInt64@?A0x36d5b1ef@@YAXAEBV?$FunctionCallbackInfo@VValue@v8@@@Nan@@@Z 0000000180025098     binding.obj
 0002:0000a0a8       $chain$1$?WriteUInt64@?A0x36d5b1ef@@YAXAEBV?$FunctionCallbackInfo@VValue@v8@@@Nan@@@Z 00000001800250a8     binding.obj
 0002:0000a0c0       $chain$2$?WriteUInt64@?A0x36d5b1ef@@YAXAEBV?$FunctionCallbackInfo@VValue@v8@@@Nan@@@Z 00000001800250c0     binding.obj
 0002:0000a0d0       $chain$0$?ReadCString@?A0x36d5b1ef@@YAXAEBV?$FunctionCallbackInfo@VValue@v8@@@Nan@@@Z 00000001800250d0     binding.obj
 0002:0000a0e4       $chain$1$?ReadCString@?A0x36d5b1ef@@YAXAEBV?$FunctionCallbackInfo@VValue@v8@@@Nan@@@Z 00000001800250e4     binding.obj
 0002:0000a0f4       $chain$0$?ReinterpretBuffer@?A0x36d5b1ef@@YAXAEBV?$FunctionCallbackInfo@VValue@v8@@@Nan@@@Z 00000001800250f4     binding.obj
 0002:0000a108       $chain$1$?ReinterpretBuffer@?A0x36d5b1ef@@YAXAEBV?$FunctionCallbackInfo@VValue@v8@@@Nan@@@Z 0000000180025108     binding.obj
 0002:0000a11c       $chain$2$?ReinterpretBuffer@?A0x36d5b1ef@@YAXAEBV?$FunctionCallbackInfo@VValue@v8@@@Nan@@@Z 000000018002511c     binding.obj
 0002:0000a12c       $chain$4$?ReinterpretBuffer@?A0x36d5b1ef@@YAXAEBV?$FunctionCallbackInfo@VValue@v8@@@Nan@@@Z 000000018002512c     binding.obj
 0002:0000a12c       $chain$6$?ReinterpretBuffer@?A0x36d5b1ef@@YAXAEBV?$FunctionCallbackInfo@VValue@v8@@@Nan@@@Z 000000018002512c     binding.obj
 0002:0000a140       $unwind$?ReinterpretBufferUntilZeros@?A0x36d5b1ef@@YAXAEBV?$FunctionCallbackInfo@VValue@v8@@@Nan@@@Z 0000000180025140     binding.obj
 0002:0000a14c       $chain$0$?ReinterpretBufferUntilZeros@?A0x36d5b1ef@@YAXAEBV?$FunctionCallbackInfo@VValue@v8@@@Nan@@@Z 000000018002514c     binding.obj
 0002:0000a160       $chain$1$?ReinterpretBufferUntilZeros@?A0x36d5b1ef@@YAXAEBV?$FunctionCallbackInfo@VValue@v8@@@Nan@@@Z 0000000180025160     binding.obj
 0002:0000a174       $chain$2$?ReinterpretBufferUntilZeros@?A0x36d5b1ef@@YAXAEBV?$FunctionCallbackInfo@VValue@v8@@@Nan@@@Z 0000000180025174     binding.obj
 0002:0000a184       $chain$4$?ReinterpretBufferUntilZeros@?A0x36d5b1ef@@YAXAEBV?$FunctionCallbackInfo@VValue@v8@@@Nan@@@Z 0000000180025184     binding.obj
 0002:0000a198       $unwind$?init@@YAXV?$Local@VObject@v8@@@v8@@@Z 0000000180025198     binding.obj
 0002:0000a1ac       $unwind$??$SetMethod@VObject@v8@@VLocal@2@@Nan@@YAXV?$Local@VObject@v8@@@v8@@PEBDP6AXAEBV?$FunctionCallbackInfo@VValue@v8@@@0@@ZV?$Local@VValue@v8@@@2@@Z 00000001800251ac     binding.obj
 0002:0000a1b8       $chain$4$??$SetMethod@VObject@v8@@VLocal@2@@Nan@@YAXV?$Local@VObject@v8@@@v8@@PEBDP6AXAEBV?$FunctionCallbackInfo@VValue@v8@@@0@@ZV?$Local@VValue@v8@@@2@@Z 00000001800251b8     binding.obj
 0002:0000a1dc       $chain$5$??$SetMethod@VObject@v8@@VLocal@2@@Nan@@YAXV?$Local@VObject@v8@@@v8@@PEBDP6AXAEBV?$FunctionCallbackInfo@VValue@v8@@@0@@ZV?$Local@VValue@v8@@@2@@Z 00000001800251dc     binding.obj
 0002:0000a1f0       $chain$6$??$SetMethod@VObject@v8@@VLocal@2@@Nan@@YAXV?$Local@VObject@v8@@@v8@@PEBDP6AXAEBV?$FunctionCallbackInfo@VValue@v8@@@0@@ZV?$Local@VValue@v8@@@2@@Z 00000001800251f0     binding.obj
 0002:0000a200       $chain$7$??$SetMethod@VObject@v8@@VLocal@2@@Nan@@YAXV?$Local@VObject@v8@@@v8@@PEBDP6AXAEBV?$FunctionCallbackInfo@VValue@v8@@@0@@ZV?$Local@VValue@v8@@@2@@Z 0000000180025200     binding.obj
 0002:0000a210       $unwind$??$invokeparameter@$00@?$WeakCallbackInfo@X@Nan@@CAXAEBV?$WeakCallbackInfo@V?$WeakCallbackInfo@X@Nan@@@v8@@@Z 0000000180025210     binding.obj
 0002:0000a210       $unwind$?DloadGetSRWLockFunctionPointers@@YAEXZ 0000000180025210     DelayImp:delayhlp.obj
 0002:0000a210       $unwind$_RTC_Initialize    0000000180025210     LIBCMT:initsect.obj
 0002:0000a210       $unwind$_RTC_Terminate     0000000180025210     LIBCMT:initsect.obj
 0002:0000a210       $unwind$??_Gbad_alloc@std@@UEAAPEAXI@Z 0000000180025210     LIBCMT:throw_bad_alloc.obj
 0002:0000a210       $unwind$??_Gbad_array_new_length@std@@UEAAPEAXI@Z 0000000180025210     LIBCMT:throw_bad_alloc.obj
 0002:0000a210       $unwind$??_Gexception@std@@UEAAPEAXI@Z 0000000180025210     LIBCMT:throw_bad_alloc.obj
 0002:0000a210       $unwind$__vcrt_FlsSetValue 0000000180025210     libvcruntime:winapi_downlevel.obj
 0002:0000a210       $unwind$??$common_initialize_environment_nolock@D@@YAHXZ 0000000180025210     libucrt:environment_initialization.obj
 0002:0000a210       $unwind$__acrt_fp_strflt_to_string 0000000180025210     libucrt:_fptostr.obj
 0002:0000a210       $unwind$_realloc_base      0000000180025210     libucrt:realloc_base.obj
 0002:0000a210       $unwind$?replace_current_thread_locale_nolock@@YAXQEAU__acrt_ptd@@QEAU__crt_locale_data@@@Z 0000000180025210     libucrt:per_thread_data.obj
 0002:0000a210       $unwind$__acrt_execute_uninitializers 0000000180025210     libucrt:shared_initialization.obj
 0002:0000a210       $unwind$__acrt_FlsSetValue 0000000180025210     libucrt:winapi_thunks.obj
 0002:0000a210       $unwind$__acrt_LocaleNameToLCID 0000000180025210     libucrt:winapi_thunks.obj
 0002:0000a210       $unwind$__acrt_can_show_message_box 0000000180025210     libucrt:winapi_thunks.obj
 0002:0000a210       $unwind$_updatetlocinfoEx_nolock 0000000180025210     libucrt:locale_refcounting.obj
 0002:0000a210       $unwind$_close_nolock      0000000180025210     libucrt:close.obj
 0002:0000a210       $unwind$__acrt_uninitialize_lowio 0000000180025210     libucrt:ioinit.obj
 0002:0000a210       $unwind$__acrt_errno_map_os_error 0000000180025210     libucrt:errno.obj
 0002:0000a210       $unwind$_initterm_e        0000000180025210     libucrt:initterm.obj
 0002:0000a210       $unwind$__acrt_stdio_allocate_buffer_nolock 0000000180025210     libucrt:_getbuf.obj
 0002:0000a210       $unwind$__acrt_stdio_begin_temporary_buffering_nolock 0000000180025210     libucrt:_sftbuf.obj
 0002:0000a210       $unwind$_fclose_nolock     0000000180025210     libucrt:fclose.obj
 0002:0000a210       $unwind$strncpy_s          0000000180025210     libucrt:strncpy_s.obj
 0002:0000a210       $unwind$wcsncat_s          0000000180025210     libucrt:wcsncat_s.obj
 0002:0000a21c       $unwind$??$SetMethodAux@V?$Local@VObject@v8@@@v8@@@imp@Nan@@YAXV?$Local@VObject@v8@@@v8@@V?$Local@VString@v8@@@3@V?$Local@VFunctionTemplate@v8@@@3@ZZ 000000018002521c     binding.obj
 0002:0000a22c       $unwind$??$invokeparameter@$0A@@?$WeakCallbackInfo@X@Nan@@CAXAEBV?$WeakCallbackInfo@V?$WeakCallbackInfo@X@Nan@@@v8@@@Z 000000018002522c     binding.obj
 0002:0000a22c       $unwind$?DloadAcquireSectionWriteAccess@@YAXXZ 000000018002522c     DelayImp:delayhlp.obj
 0002:0000a22c       $unwind$__raise_securityfailure 000000018002522c     LIBCMT:gs_report.obj
 0002:0000a22c       $unwind$??2@YAPEAX_K@Z     000000018002522c     LIBCMT:new_scalar.obj
 0002:0000a22c       $unwind$??_Gtype_info@@UEAAPEAXI@Z 000000018002522c     LIBCMT:std_type_info_static.obj
 0002:0000a22c       $unwind$??0bad_alloc@std@@QEAA@AEBV01@@Z 000000018002522c     LIBCMT:throw_bad_alloc.obj
 0002:0000a22c       $unwind$??0bad_array_new_length@std@@QEAA@AEBV01@@Z 000000018002522c     LIBCMT:throw_bad_alloc.obj
 0002:0000a22c       $unwind$??0exception@std@@QEAA@AEBV01@@Z 000000018002522c     LIBCMT:throw_bad_alloc.obj
 0002:0000a22c       $unwind$__scrt_initialize_crt 000000018002522c     LIBCMT:utility.obj
 0002:0000a22c       $unwind$__scrt_initialize_onexit_tables 000000018002522c     LIBCMT:utility.obj
 0002:0000a22c       $unwind$__scrt_release_startup_lock 000000018002522c     LIBCMT:utility.obj
 0002:0000a22c       $unwind$__scrt_uninitialize_crt 000000018002522c     LIBCMT:utility.obj
 0002:0000a22c       $unwind$__vcrt_uninitialize_locks 000000018002522c     libvcruntime:locks.obj
 0002:0000a22c       $unwind$__vcrt_freeptd     000000018002522c     libvcruntime:per_thread_data.obj
 0002:0000a22c       $unwind$__std_exception_destroy 000000018002522c     libvcruntime:std_exception.obj
 0002:0000a22c       $unwind$__std_type_info_destroy_list 000000018002522c     libvcruntime:std_type_info.obj
 0002:0000a22c       $unwind$__vcrt_FlsAlloc    000000018002522c     libvcruntime:winapi_downlevel.obj
 0002:0000a22c       $unwind$__vcrt_FlsFree     000000018002522c     libvcruntime:winapi_downlevel.obj
 0002:0000a22c       $unwind$__vcrt_FlsGetValue 000000018002522c     libvcruntime:winapi_downlevel.obj
 0002:0000a22c       $unwind$_calloc_base       000000018002522c     libucrt:calloc_base.obj
 0002:0000a22c       $unwind$_malloc_base       000000018002522c     libucrt:malloc_base.obj
 0002:0000a22c       $unwind$_callnewh          000000018002522c     libucrt:new_handler.obj
 0002:0000a22c       $unwind$initialize_pointers 000000018002522c     libucrt:initialization.obj
 0002:0000a22c       $unwind$uninitialize_allocated_memory 000000018002522c     libucrt:initialization.obj
 0002:0000a22c       $unwind$__acrt_initialize_locks 000000018002522c     libucrt:locks.obj
 0002:0000a22c       $unwind$__acrt_uninitialize_locks 000000018002522c     libucrt:locks.obj
 0002:0000a22c       $unwind$__acrt_freeptd     000000018002522c     libucrt:per_thread_data.obj
 0002:0000a22c       $unwind$__acrt_getptd_head 000000018002522c     libucrt:per_thread_data.obj
 0002:0000a22c       $unwind$__acrt_get_developer_information_policy 000000018002522c     libucrt:win_policies.obj
 0002:0000a22c       $unwind$__acrt_get_process_end_policy 000000018002522c     libucrt:win_policies.obj
 0002:0000a22c       $unwind$__acrt_get_windowing_model_policy 000000018002522c     libucrt:win_policies.obj
 0002:0000a22c       $unwind$__acrt_AppPolicyGetProcessTerminationMethodInternal 000000018002522c     libucrt:winapi_thunks.obj
 0002:0000a22c       $unwind$__acrt_AppPolicyGetShowDeveloperDiagnosticInternal 000000018002522c     libucrt:winapi_thunks.obj
 0002:0000a22c       $unwind$__acrt_AppPolicyGetWindowingModelInternal 000000018002522c     libucrt:winapi_thunks.obj
 0002:0000a22c       $unwind$__acrt_FlsAlloc    000000018002522c     libucrt:winapi_thunks.obj
 0002:0000a22c       $unwind$__acrt_FlsFree     000000018002522c     libucrt:winapi_thunks.obj
 0002:0000a22c       $unwind$__acrt_FlsGetValue 000000018002522c     libucrt:winapi_thunks.obj
 0002:0000a22c       $unwind$__acrt_get_parent_window 000000018002522c     libucrt:winapi_thunks.obj
 0002:0000a22c       $unwind$__acrt_uninitialize_winapi_thunks 000000018002522c     libucrt:winapi_thunks.obj
 0002:0000a22c       $unwind$__acrt_update_locale_info 000000018002522c     libucrt:locale_update.obj
 0002:0000a22c       $unwind$__acrt_update_multibyte_info 000000018002522c     libucrt:locale_update.obj
 0002:0000a22c       $unwind$__acrt_allocate_buffer_for_argv 000000018002522c     libucrt:argv_parsing.obj
 0002:0000a22c       $unwind$?exit_or_terminate_process@@YAXI@Z 000000018002522c     libucrt:exit.obj
 0002:0000a22c       $unwind$?try_cor_exit_process@@YAXI@Z 000000018002522c     libucrt:exit.obj
 0002:0000a22c       $unwind$__acrt_uninitialize_stdio 000000018002522c     libucrt:_file.obj
 0002:0000a22c       $unwind$?stream_is_at_end_of_file_nolock@@YA_NV__crt_stdio_stream@@@Z 000000018002522c     libucrt:_flsbuf.obj
 0002:0000a22c       $unwind$__acrt_stdio_free_buffer_nolock 000000018002522c     libucrt:_freebuf.obj
 0002:0000a22c       $unwind$_fflush_nolock     000000018002522c     libucrt:fflush.obj
 0002:0000a22c       $unwind$?state_case_normal@?$output_processor@DV?$string_output_adapter@D@__crt_stdio_output@@V?$format_validation_base@DV?$string_output_adapter@D@__crt_stdio_output@@@2@@__crt_stdio_output@@AEAA_NXZ 000000018002522c     libucrt:output.obj
 0002:0000a22c       $unwind$?type_case_c_tchar@?$output_processor@DV?$string_output_adapter@D@__crt_stdio_output@@V?$format_validation_base@DV?$string_output_adapter@D@__crt_stdio_output@@@2@@__crt_stdio_output@@AEAA_ND@Z 000000018002522c     libucrt:output.obj
 0002:0000a22c       $unwind$?type_case_s@?$output_processor@DV?$string_output_adapter@D@__crt_stdio_output@@V?$format_validation_base@DV?$string_output_adapter@D@__crt_stdio_output@@@2@@__crt_stdio_output@@AEAA_NXZ 000000018002522c     libucrt:output.obj
 0002:0000a22c       $unwind$strcpy_s           000000018002522c     libucrt:strcpy_s.obj
 0002:0000a22c       $unwind$wcscat_s           000000018002522c     libucrt:wcscat_s.obj
 0002:0000a22c       $unwind$wcscpy_s           000000018002522c     libucrt:wcscpy_s.obj
 0002:0000a22c       $unwind$_clrfp             000000018002522c     libucrt:fpctrl.obj
 0002:0000a22c       $unwind$_set_statfp        000000018002522c     libucrt:fpctrl.obj
 0002:0000a22c       $unwind$_clearfp           000000018002522c     libucrt:ieee.obj
 0002:0000a22c       $unwind$fegetenv           000000018002522c     libucrt:fegetenv.obj
 0002:0000a22c       $unwind$feholdexcept       000000018002522c     libucrt:feholdexcept.obj
 0002:0000a22c       $unwind$fesetenv           000000018002522c     libucrt:fesetenv.obj
 0002:0000a234       $unwind$?load_exe_hook@@YAP6A_JXZIPEAUDelayLoadInfo@@@Z 0000000180025234     win_delay_load_hook.obj
 0002:0000a234       $unwind$?DloadReleaseSectionWriteAccess@@YAXXZ 0000000180025234     DelayImp:delayhlp.obj
 0002:0000a234       $unwind$__scrt_initialize_default_local_stdio_options 0000000180025234     LIBCMT:default_local_stdio_options.obj
 0002:0000a234       $unwind$?dllmain_crt_dispatch@@YAHQEAUHINSTANCE__@@KQEAX@Z 0000000180025234     LIBCMT:dll_dllmain.obj
 0002:0000a234       $unwind$__report_rangecheckfailure 0000000180025234     LIBCMT:gs_report.obj
 0002:0000a234       $unwind$__GSHandlerCheck   0000000180025234     LIBCMT:gshandler.obj
 0002:0000a234       $unwind$__scrt_acquire_startup_lock 0000000180025234     LIBCMT:utility.obj
 0002:0000a234       $unwind$__scrt_dllmain_after_initialize_c 0000000180025234     LIBCMT:utility.obj
 0002:0000a234       $unwind$__scrt_dllmain_before_initialize_c 0000000180025234     LIBCMT:utility.obj
 0002:0000a234       $unwind$__scrt_dllmain_crt_thread_attach 0000000180025234     LIBCMT:utility.obj
 0002:0000a234       $unwind$__scrt_dllmain_crt_thread_detach 0000000180025234     LIBCMT:utility.obj
 0002:0000a234       $unwind$__scrt_dllmain_uninitialize_c 0000000180025234     LIBCMT:utility.obj
 0002:0000a234       $unwind$__scrt_dllmain_uninitialize_critical 0000000180025234     LIBCMT:utility.obj
 0002:0000a234       $unwind$__vcrt_initialize  0000000180025234     libvcruntime:initialization.obj
 0002:0000a234       $unwind$__vcrt_thread_attach 0000000180025234     libvcruntime:initialization.obj
 0002:0000a234       $unwind$__vcrt_thread_detach 0000000180025234     libvcruntime:initialization.obj
 0002:0000a234       $unwind$__vcrt_uninitialize 0000000180025234     libvcruntime:initialization.obj
 0002:0000a234       $unwind$__vcrt_uninitialize_critical 0000000180025234     libvcruntime:initialization.obj
 0002:0000a234       $unwind$__vcrt_initialize_locks 0000000180025234     libvcruntime:locks.obj
 0002:0000a234       $unwind$__vcrt_freefls     0000000180025234     libvcruntime:per_thread_data.obj
 0002:0000a234       $unwind$__vcrt_getptd      0000000180025234     libvcruntime:per_thread_data.obj
 0002:0000a234       $unwind$__vcrt_initialize_ptd 0000000180025234     libvcruntime:per_thread_data.obj
 0002:0000a234       $unwind$__vcrt_uninitialize_ptd 0000000180025234     libvcruntime:per_thread_data.obj
 0002:0000a234       $unwind$__dcrt_terminate_console_output 0000000180025234     libucrt:initcon.obj
 0002:0000a234       $unwind$??$uninitialize_environment_internal@D@@YAXAEAPEAPEAD@Z 0000000180025234     libucrt:environment_initialization.obj
 0002:0000a234       $unwind$??$uninitialize_environment_internal@_W@@YAXAEAPEAPEA_W@Z 0000000180025234     libucrt:environment_initialization.obj
 0002:0000a234       $unwind$__dcrt_uninitialize_environments_nolock 0000000180025234     libucrt:environment_initialization.obj
 0002:0000a234       $unwind$?__c32rtomb_utf8@__crt_mbstring@@YA_KPEAD_UPEAU_Mbstatet@@@Z 0000000180025234     libucrt:c32rtomb.obj
 0002:0000a234       $unwind$__acrt_initialize_heap 0000000180025234     libucrt:heap_handle.obj
 0002:0000a234       $unwind$_msize_base        0000000180025234     libucrt:msize.obj
 0002:0000a234       $unwind$?initialize_multibyte@@YAHXZ 0000000180025234     libucrt:multibyte_initializer.obj
 0002:0000a234       $unwind$__acrt_thread_attach 0000000180025234     libucrt:initialization.obj
 0002:0000a234       $unwind$__acrt_thread_detach 0000000180025234     libucrt:initialization.obj
 0002:0000a234       $unwind$__acrt_uninitialize 0000000180025234     libucrt:initialization.obj
 0002:0000a234       $unwind$__acrt_uninitialize_critical 0000000180025234     libucrt:initialization.obj
 0002:0000a234       $unwind$initialize_c       0000000180025234     libucrt:initialization.obj
 0002:0000a234       $unwind$uninitialize_allocated_io_buffers 0000000180025234     libucrt:initialization.obj
 0002:0000a234       $unwind$uninitialize_environment 0000000180025234     libucrt:initialization.obj
 0002:0000a234       $unwind$__acrt_initialize_ptd 0000000180025234     libucrt:per_thread_data.obj
 0002:0000a234       $unwind$__acrt_uninitialize_ptd 0000000180025234     libucrt:per_thread_data.obj
 0002:0000a234       $unwind$__acrt_AreFileApisANSI 0000000180025234     libucrt:winapi_thunks.obj
 0002:0000a234       $unwind$__pctype_func      0000000180025234     libucrt:ctype.obj
 0002:0000a234       $unwind$__acrt_release_locale_ref 0000000180025234     libucrt:locale_refcounting.obj
 0002:0000a234       $unwind$_isatty            0000000180025234     libucrt:isatty.obj
 0002:0000a234       $unwind$_get_osfhandle     0000000180025234     libucrt:osfinfo.obj
 0002:0000a234       $unwind$__acrt_initialize_multibyte 0000000180025234     libucrt:mbctype.obj
 0002:0000a234       $unwind$__acrt_update_thread_multibyte_data 0000000180025234     libucrt:mbctype.obj
 0002:0000a234       $unwind$__doserrno         0000000180025234     libucrt:errno.obj
 0002:0000a234       $unwind$_errno             0000000180025234     libucrt:errno.obj
 0002:0000a234       $unwind$_invoke_watson     0000000180025234     libucrt:invalid_parameter.obj
 0002:0000a234       $unwind$_set_error_mode    0000000180025234     libucrt:set_error_mode.obj
 0002:0000a234       $unwind$abort              0000000180025234     libucrt:abort.obj
 0002:0000a234       $unwind$__acrt_initialize_command_line 0000000180025234     libucrt:argv_data.obj
 0002:0000a234       $unwind$_fileno            0000000180025234     libucrt:fileno.obj
 0002:0000a234       $unwind$?state_case_normal_tchar@?$output_processor@DV?$string_output_adapter@D@__crt_stdio_output@@V?$format_validation_base@DV?$string_output_adapter@D@__crt_stdio_output@@@2@@__crt_stdio_output@@AEAA_ND@Z 0000000180025234     libucrt:output.obj
 0002:0000a234       $unwind$?state_case_size@?$output_processor@DV?$string_output_adapter@D@__crt_stdio_output@@V?$format_validation_base@DV?$string_output_adapter@D@__crt_stdio_output@@@2@@__crt_stdio_output@@AEAA_NXZ 0000000180025234     libucrt:output.obj
 0002:0000a234       $unwind$?state_case_size@?$output_processor@_WV?$stream_output_adapter@_W@__crt_stdio_output@@V?$standard_base@_WV?$stream_output_adapter@_W@__crt_stdio_output@@@2@@__crt_stdio_output@@AEAA_NXZ 0000000180025234     libucrt:output.obj
 0002:0000a234       $unwind$?state_case_size@?$output_processor@_WV?$string_output_adapter@_W@__crt_stdio_output@@V?$standard_base@_WV?$string_output_adapter@_W@__crt_stdio_output@@@2@@__crt_stdio_output@@AEAA_NXZ 0000000180025234     libucrt:output.obj
 0002:0000a234       $unwind$_stricmp           0000000180025234     libucrt:stricmp.obj
 0002:0000a234       $unwind$_statfp            0000000180025234     libucrt:fpctrl.obj
 0002:0000a234       $unwind$_set_errno_from_matherr 0000000180025234     libucrt:fpexcept.obj
 0002:0000a23c       xdata                      000000018002523c     node:node.exe
 0002:0000a248       $xdatasym                  0000000180025248     LIBCMT:amdsecgs.obj
 0002:0000a24c       $unwind$?dllmain_crt_process_attach@@YAHQEAUHINSTANCE__@@QEAX@Z 000000018002524c     LIBCMT:dll_dllmain.obj
 0002:0000a288       $unwind$?fin$0@?0??dllmain_crt_process_attach@@YAHQEAUHINSTANCE__@@QEAX@Z@4HA 0000000180025288     LIBCMT:dll_dllmain.obj
 0002:0000a288       $unwind$?fin$0@?0??dllmain_crt_process_detach@@YAH_N@Z@4HA 0000000180025288     LIBCMT:dll_dllmain.obj
 0002:0000a288       $unwind$?fin$1@?0??dllmain_crt_process_detach@@YAH_N@Z@4HA 0000000180025288     LIBCMT:dll_dllmain.obj
 0002:0000a288       $unwind$_IsNonwritableInCurrentImage$filt$0 0000000180025288     LIBCMT:pesect.obj
 0002:0000a288       $unwind$_query_new_handler$fin$0 0000000180025288     libucrt:new_handler.obj
 0002:0000a288       $unwind$?fin$0@?0???$?RV<lambda_0ae27a3a962d80f24befdcbee591983d>@@AEAV<lambda_8d0ee55de4b1038c4002e0adecdf1839>@@V<lambda_dc504788e8f1664fe9b84e20bfb512f2>@@@?$__crt_seh_guarded_call@X@@QEAAX$$QEAV<lambda_0ae27a3a962d80f24befdcbee591983d>@@AEAV<lambda_8d0ee55de4b1038c4002e0adecdf1839>@@$$QEAV<lambda_dc504788e8f1664fe9b84e20bfb512f2>@@@Z@4HA 0000000180025288     libucrt:per_thread_data.obj
 0002:0000a288       $unwind$?fin$0@?0???$?RV<lambda_2d41944a1d46af3157314b8a01080d33>@@AEAV<lambda_8f455de75cd7d7f24b4096f044d8b9e6>@@V<lambda_aa500f224e6afead328df44964fe2772>@@@?$__crt_seh_guarded_call@X@@QEAAX$$QEAV<lambda_2d41944a1d46af3157314b8a01080d33>@@AEAV<lambda_8f455de75cd7d7f24b4096f044d8b9e6>@@$$QEAV<lambda_aa500f224e6afead328df44964fe2772>@@@Z@4HA 0000000180025288     libucrt:per_thread_data.obj
 0002:0000a288       $unwind$?fin$0@?0???$?RV<lambda_aa87e3671a710a21b5dc78c0bdf72e11>@@AEAV<lambda_92619d2358a28f41a33ba319515a20b9>@@V<lambda_6992ecaafeb10aed2b74cb1fae11a551>@@@?$__crt_seh_guarded_call@X@@QEAAX$$QEAV<lambda_aa87e3671a710a21b5dc78c0bdf72e11>@@AEAV<lambda_92619d2358a28f41a33ba319515a20b9>@@$$QEAV<lambda_6992ecaafeb10aed2b74cb1fae11a551>@@@Z@4HA 0000000180025288     libucrt:per_thread_data.obj
 0002:0000a288       $unwind$?fin$0@?0???$?RV<lambda_f2e299630e499de9f9a165e60fcd3db5>@@AEAV<lambda_2ae9d31cdba2644fcbeaf08da7c24588>@@V<lambda_40d01ff24d0e7b3814fdbdcee8eab3c7>@@@?$__crt_seh_guarded_call@X@@QEAAX$$QEAV<lambda_f2e299630e499de9f9a165e60fcd3db5>@@AEAV<lambda_2ae9d31cdba2644fcbeaf08da7c24588>@@$$QEAV<lambda_40d01ff24d0e7b3814fdbdcee8eab3c7>@@@Z@4HA 0000000180025288     libucrt:per_thread_data.obj
 0002:0000a288       $unwind$__acrt_update_thread_locale_data$fin$0 0000000180025288     libucrt:locale_refcounting.obj
 0002:0000a288       $unwind$?fin$0@?0???$?RV<lambda_410d79af7f07d98d83a3f525b3859a53>@@AEAV<lambda_3e16ef9562a7dcce91392c22ab16ea36>@@V<lambda_38119f0e861e05405d8a144b9b982f0a>@@@?$__crt_seh_guarded_call@X@@QEAAX$$QEAV<lambda_410d79af7f07d98d83a3f525b3859a53>@@AEAV<lambda_3e16ef9562a7dcce91392c22ab16ea36>@@$$QEAV<lambda_38119f0e861e05405d8a144b9b982f0a>@@@Z@4HA 0000000180025288     libucrt:wsetlocale.obj
 0002:0000a288       $unwind$?fin$0@?0???$?RV<lambda_751a882b2c74d4b022dec766aa51a29a>@@AEAV<lambda_628dfdc04ba53c8bfc02c9951375f3f5>@@V<lambda_f6c7be5f7998530c34de24c7437d6b54>@@@?$__crt_seh_guarded_call@H@@QEAAH$$QEAV<lambda_751a882b2c74d4b022dec766aa51a29a>@@AEAV<lambda_628dfdc04ba53c8bfc02c9951375f3f5>@@$$QEAV<lambda_f6c7be5f7998530c34de24c7437d6b54>@@@Z@4HA 0000000180025288     libucrt:close.obj
 0002:0000a288       $unwind$?fin$0@?0???$?RV<lambda_a37b2b86f63e897a80ea819b0eb08c01>@@AEAV<lambda_38ce7e780aa69e748d6df282ebc68efe>@@V<lambda_99fb1378e971ab6e7edea83e3a7a83a2>@@@?$__crt_seh_guarded_call@H@@QEAAH$$QEAV<lambda_a37b2b86f63e897a80ea819b0eb08c01>@@AEAV<lambda_38ce7e780aa69e748d6df282ebc68efe>@@$$QEAV<lambda_99fb1378e971ab6e7edea83e3a7a83a2>@@@Z@4HA 0000000180025288     libucrt:commit.obj
 0002:0000a288       $unwind$__acrt_initialize_lowio$fin$0 0000000180025288     libucrt:ioinit.obj
 0002:0000a288       $unwind$?fin$0@?0???$common_lseek@_J@@YA_JH_JH@Z@4HA 0000000180025288     libucrt:lseek.obj
 0002:0000a288       $unwind$__acrt_lowio_ensure_fh_exists$fin$0 0000000180025288     libucrt:osfinfo.obj
 0002:0000a288       $unwind$_write$fin$0       0000000180025288     libucrt:write.obj
 0002:0000a288       $unwind$?fin$0@?0???$?RV<lambda_efdfa57d1f175319df784efa44bb7b81>@@AEAV<lambda_5f0a4c1567f8adc6734073e5d1e1b35c>@@V<lambda_2e8a7d3640ea6ccb4c2413664c2db6fd>@@@?$__crt_seh_guarded_call@X@@QEAAX$$QEAV<lambda_efdfa57d1f175319df784efa44bb7b81>@@AEAV<lambda_5f0a4c1567f8adc6734073e5d1e1b35c>@@$$QEAV<lambda_2e8a7d3640ea6ccb4c2413664c2db6fd>@@@Z@4HA 0000000180025288     libucrt:mbctype.obj
 0002:0000a288       $unwind$?fin$0@?0??update_thread_multibyte_data_internal@@YAPEAU__crt_multibyte_data@@QEAU__acrt_ptd@@QEAPEAU1@@Z@4HA 0000000180025288     libucrt:mbctype.obj
 0002:0000a288       $unwind$?fin$0@?0???$?RV<lambda_450d765d439847d4c735a33c368b5fc0>@@AEAV<lambda_44731a7d0e6d81c3e6aa82d741081786>@@V<lambda_601a2a7da3b7a96e9554ac7215c4b07c>@@@?$__crt_seh_guarded_call@P6AXH@Z@@QEAAP6AXH@Z$$QEAV<lambda_450d765d439847d4c735a33c368b5fc0>@@AEAV<lambda_44731a7d0e6d81c3e6aa82d741081786>@@$$QEAV<lambda_601a2a7da3b7a96e9554ac7215c4b07c>@@@Z@4HA 0000000180025288     libucrt:signal.obj
 0002:0000a288       $unwind$raise$fin$0        0000000180025288     libucrt:signal.obj
 0002:0000a288       $unwind$?filt$0@?0???R<lambda_6e4b09c48022b2350581041d5f6b0c4c>@@QEBA@XZ@4HA 0000000180025288     libucrt:exit.obj
 0002:0000a288       $unwind$?fin$0@?0???$?RV<lambda_d80eeec6fff315bfe5c115232f3240e3>@@AEAV<lambda_6e4b09c48022b2350581041d5f6b0c4c>@@V<lambda_2358e3775559c9db80273638284d5e45>@@@?$__crt_seh_guarded_call@X@@QEAAX$$QEAV<lambda_d80eeec6fff315bfe5c115232f3240e3>@@AEAV<lambda_6e4b09c48022b2350581041d5f6b0c4c>@@$$QEAV<lambda_2358e3775559c9db80273638284d5e45>@@@Z@4HA 0000000180025288     libucrt:exit.obj
 0002:0000a288       $unwind$?fin$0@?0???$?RV<lambda_7777bce6b2f8c936911f934f8298dc43>@@AEAV<lambda_f03950bc5685219e0bcd2087efbe011e>@@V<lambda_3883c3dff614d5e0c5f61bb1ac94921c>@@@?$__crt_seh_guarded_call@H@@QEAAH$$QEAV<lambda_7777bce6b2f8c936911f934f8298dc43>@@AEAV<lambda_f03950bc5685219e0bcd2087efbe011e>@@$$QEAV<lambda_3883c3dff614d5e0c5f61bb1ac94921c>@@@Z@4HA 0000000180025288     libucrt:onexit.obj
 0002:0000a288       $unwind$_fcloseall$fin$0   0000000180025288     libucrt:closeall.obj
 0002:0000a288       $unwind$fclose$fin$0       0000000180025288     libucrt:fclose.obj
 0002:0000a288       $unwind$?fin$0@?0???$?RV<lambda_842d9ff0dc9ef11c61343bbaebe7f885>@@AEAV<lambda_c5860995281e5c4ce005b3de8f5874ee>@@V<lambda_d90129c13df834fdcbf8d2b88dafcf2d>@@@?$__crt_seh_guarded_call@X@@QEAAX$$QEAV<lambda_842d9ff0dc9ef11c61343bbaebe7f885>@@AEAV<lambda_c5860995281e5c4ce005b3de8f5874ee>@@$$QEAV<lambda_d90129c13df834fdcbf8d2b88dafcf2d>@@@Z@4HA 0000000180025288     libucrt:fflush.obj
 0002:0000a288       $unwind$?fin$0@?0???$?RV<lambda_886d6c58226a84441f68b9f2b8217b83>@@AEAV<lambda_ab61a845afdef5b7c387490eaf3616ee>@@V<lambda_f7f22ab5edc0698d5f6905b0d3f44752>@@@?$__crt_seh_guarded_call@X@@QEAAX$$QEAV<lambda_886d6c58226a84441f68b9f2b8217b83>@@AEAV<lambda_ab61a845afdef5b7c387490eaf3616ee>@@$$QEAV<lambda_f7f22ab5edc0698d5f6905b0d3f44752>@@@Z@4HA 0000000180025288     libucrt:fflush.obj
 0002:0000a288       $unwind$?fin$0@?0???$?RV<lambda_c376a267cfb53b6959b3b692ec76b120>@@AEAV<lambda_9a32fed5bf61b6b509b2d3f6003082a1>@@V<lambda_572fbb9fa0ab338edf41edfd4b5fcc8d>@@@?$__crt_seh_guarded_call@H@@QEAAH$$QEAV<lambda_c376a267cfb53b6959b3b692ec76b120>@@AEAV<lambda_9a32fed5bf61b6b509b2d3f6003082a1>@@$$QEAV<lambda_572fbb9fa0ab338edf41edfd4b5fcc8d>@@@Z@4HA 0000000180025288     libucrt:fflush.obj
 0002:0000a288       $unwind$?fin$0@?0???$?RV<lambda_676bd5779251ec186b530f0a904b4b35>@@AEAV<lambda_b579ea784fd840951dfbcbdaebf709fd>@@V<lambda_10027885da78ada7fb00668d7e2e96b5>@@@?$__crt_seh_guarded_call@H@@QEAAH$$QEAV<lambda_676bd5779251ec186b530f0a904b4b35>@@AEAV<lambda_b579ea784fd840951dfbcbdaebf709fd>@@$$QEAV<lambda_10027885da78ada7fb00668d7e2e96b5>@@@Z@4HA 0000000180025288     libucrt:output.obj
 0002:0000a288       $unwind$?fin$0@?0???$?RV<lambda_84ec643ea9557e2f7dc01bb0e9624395>@@AEAV<lambda_ca71763b3c0644891230e4f79ea54fa6>@@V<lambda_439a761618c59b0600e24586724d733b>@@@?$__crt_seh_guarded_call@H@@QEAAH$$QEAV<lambda_84ec643ea9557e2f7dc01bb0e9624395>@@AEAV<lambda_ca71763b3c0644891230e4f79ea54fa6>@@$$QEAV<lambda_439a761618c59b0600e24586724d733b>@@@Z@4HA 0000000180025288     libucrt:setvbuf.obj
 0002:0000a288       $unwind$_ctrlfp$filt$0     0000000180025288     libucrt:fpctrl.obj
 0002:0000a290       $unwind$?dllmain_crt_process_detach@@YAH_N@Z 0000000180025290     LIBCMT:dll_dllmain.obj
 0002:0000a2e4       $unwind$?dllmain_dispatch@@YAHQEAUHINSTANCE__@@KQEAX@Z 00000001800252e4     LIBCMT:dll_dllmain.obj
 0002:0000a30c       $unwind$?filt$0@?0??dllmain_dispatch@@YAHQEAUHINSTANCE__@@KQEAX@Z@4HA 000000018002530c     LIBCMT:dll_dllmain.obj
 0002:0000a314       $unwind$_DllMainCRTStartup 0000000180025314     LIBCMT:dll_dllmain.obj
 0002:0000a314       $unwind$__vcrt_getptd_noexit 0000000180025314     libvcruntime:per_thread_data.obj
 0002:0000a314       $unwind$__vcrt_InitializeCriticalSectionEx 0000000180025314     libvcruntime:winapi_downlevel.obj
 0002:0000a314       $unwind$memcpy_s           0000000180025314     libucrt:cfout.obj
 0002:0000a314       $unwind$??0_LocaleUpdate@@QEAA@QEAU__crt_locale_pointers@@@Z 0000000180025314     libucrt:strtox.obj
 0002:0000a314       $unwind$__acrt_getptd      0000000180025314     libucrt:per_thread_data.obj
 0002:0000a314       $unwind$__acrt_getptd_noexit 0000000180025314     libucrt:per_thread_data.obj
 0002:0000a314       $unwind$__acrt_execute_initializers 0000000180025314     libucrt:shared_initialization.obj
 0002:0000a314       $unwind$__acrt_InitializeCriticalSectionEx 0000000180025314     libucrt:winapi_thunks.obj
 0002:0000a314       $unwind$?free_crt_array_internal@@YAXQEAPEBX_K@Z 0000000180025314     libucrt:inittime.obj
 0002:0000a314       $unwind$??$common_lseek_nolock@_J@@YA_JH_JH@Z 0000000180025314     libucrt:lseek.obj
 0002:0000a314       $unwind$__acrt_stdio_flush_and_write_narrow_nolock 0000000180025314     libucrt:_flsbuf.obj
 0002:0000a314       $unwind$__acrt_stdio_flush_and_write_wide_nolock 0000000180025314     libucrt:_flsbuf.obj
 0002:0000a314       $unwind$__acrt_stdio_flush_nolock 0000000180025314     libucrt:fflush.obj
 0002:0000a314       $unwind$?type_case_Z@?$output_processor@_WV?$stream_output_adapter@_W@__crt_stdio_output@@V?$standard_base@_WV?$stream_output_adapter@_W@__crt_stdio_output@@@2@@__crt_stdio_output@@AEAA_NXZ 0000000180025314     libucrt:output.obj
 0002:0000a314       $unwind$?type_case_Z@?$output_processor@_WV?$string_output_adapter@_W@__crt_stdio_output@@V?$standard_base@_WV?$string_output_adapter@_W@__crt_stdio_output@@@2@@__crt_stdio_output@@AEAA_NXZ 0000000180025314     libucrt:output.obj
 0002:0000a314       $unwind$?type_case_n@?$output_processor@DV?$string_output_adapter@D@__crt_stdio_output@@V?$format_validation_base@DV?$string_output_adapter@D@__crt_stdio_output@@@2@@__crt_stdio_output@@AEAA_NXZ 0000000180025314     libucrt:output.obj
 0002:0000a314       $unwind$?type_case_n@?$output_processor@_WV?$stream_output_adapter@_W@__crt_stdio_output@@V?$standard_base@_WV?$stream_output_adapter@_W@__crt_stdio_output@@@2@@__crt_stdio_output@@AEAA_NXZ 0000000180025314     libucrt:output.obj
 0002:0000a314       $unwind$?type_case_n@?$output_processor@_WV?$string_output_adapter@_W@__crt_stdio_output@@V?$standard_base@_WV?$string_output_adapter@_W@__crt_stdio_output@@@2@@__crt_stdio_output@@AEAA_NXZ 0000000180025314     libucrt:output.obj
 0002:0000a314       $unwind$?type_case_s@?$output_processor@_WV?$stream_output_adapter@_W@__crt_stdio_output@@V?$standard_base@_WV?$stream_output_adapter@_W@__crt_stdio_output@@@2@@__crt_stdio_output@@AEAA_NXZ 0000000180025314     libucrt:output.obj
 0002:0000a314       $unwind$?type_case_s@?$output_processor@_WV?$string_output_adapter@_W@__crt_stdio_output@@V?$standard_base@_WV?$string_output_adapter@_W@__crt_stdio_output@@@2@@__crt_stdio_output@@AEAA_NXZ 0000000180025314     libucrt:output.obj
 0002:0000a314       $unwind$??R<lambda_ca71763b3c0644891230e4f79ea54fa6>@@QEBAHXZ 0000000180025314     libucrt:setvbuf.obj
 0002:0000a314       $unwind$_exception_enabled 0000000180025314     libucrt:libm_error.obj
 0002:0000a324       $unwind$__report_securityfailure 0000000180025324     LIBCMT:gs_report.obj
 0002:0000a32c       $unwind$__report_gsfailure 000000018002532c     LIBCMT:gs_report.obj
 0002:0000a334       $unwind$capture_current_context 0000000180025334     LIBCMT:gs_report.obj
 0002:0000a340       $unwind$capture_previous_context 0000000180025340     LIBCMT:gs_report.obj
 0002:0000a34c       $unwind$?__scrt_throw_std_bad_alloc@@YAXXZ 000000018002534c     LIBCMT:throw_bad_alloc.obj
 0002:0000a34c       $unwind$?__scrt_throw_std_bad_array_new_length@@YAXXZ 000000018002534c     LIBCMT:throw_bad_alloc.obj
 0002:0000a34c       $unwind$_raise_exc         000000018002534c     libucrt:fpexcept.obj
 0002:0000a354       $unwind$__security_init_cookie 0000000180025354     LIBCMT:gs_support.obj
 0002:0000a360       $unwind$__scrt_is_nonwritable_in_current_image 0000000180025360     LIBCMT:utility.obj
 0002:0000a380       $unwind$__scrt_is_nonwritable_in_current_image$filt$0 0000000180025380     LIBCMT:utility.obj
 0002:0000a388       $unwind$__scrt_dllmain_exception_filter 0000000180025388     LIBCMT:utility.obj
 0002:0000a388       $unwind$_ischartype_l      0000000180025388     libucrt:strtox.obj
 0002:0000a388       $unwind$_recalloc_base     0000000180025388     libucrt:recalloc.obj
 0002:0000a388       $unwind$__acrt_free_locale 0000000180025388     libucrt:locale_refcounting.obj
 0002:0000a388       $unwind$__acrt_lowio_create_handle_array 0000000180025388     libucrt:osfinfo.obj
 0002:0000a388       $unwind$?setSBCS@@YAXPEAU__crt_multibyte_data@@@Z 0000000180025388     libucrt:mbctype.obj
 0002:0000a388       $unwind$__acrt_show_wide_message_box 0000000180025388     libucrt:crtmbox.obj
 0002:0000a388       $unwind$_seh_filter_exe    0000000180025388     libucrt:exception_filter.obj
 0002:0000a388       $unwind$_wassert           0000000180025388     libucrt:assert.obj
 0002:0000a388       $unwind$_initterm          0000000180025388     libucrt:initterm.obj
 0002:0000a388       $unwind$??$ensure_buffer_is_big_enough@D@formatting_buffer@__crt_stdio_output@@QEAA_N_K@Z 0000000180025388     libucrt:output.obj
 0002:0000a388       $unwind$??$ensure_buffer_is_big_enough@_W@formatting_buffer@__crt_stdio_output@@QEAA_N_K@Z 0000000180025388     libucrt:output.obj
 0002:0000a39c       $unwind$__scrt_fastfail    000000018002539c     LIBCMT:utility_desktop.obj
 0002:0000a3ac       $unwind$__isa_available_init 00000001800253ac     LIBCMT:cpu_disp.obj
 0002:0000a3c0       $xdatasym                  00000001800253c0     LIBCMT:guard_dispatch.obj
 0002:0000a3c4       $unwind$__C_specific_handler 00000001800253c4     libvcruntime:riscchandler.obj
 0002:0000a3e0       $unwind$__std_exception_copy 00000001800253e0     libvcruntime:std_exception.obj
 0002:0000a3e0       $unwind$_free_osfhnd       00000001800253e0     libucrt:osfinfo.obj
 0002:0000a3f4       $unwind$_CxxThrowException 00000001800253f4     libvcruntime:throw.obj
 0002:0000a404       $unwind$__DestructExceptionObject 0000000180025404     libvcruntime:ehhelpers.obj
 0002:0000a424       $unwind$__DestructExceptionObject$filt$0 0000000180025424     libvcruntime:ehhelpers.obj
 0002:0000a430       $xdatasym                  0000000180025430     libvcruntime:memset.obj
 0002:0000a440       $xdatasym                  0000000180025440     libvcruntime:notify.obj
 0002:0000a450       $xdatasym                  0000000180025450     libvcruntime:memcpy.obj
 0002:0000a460       $unwind$?try_get_function@@YAPEAXW4function_id@?A0x5a6460af@@QEBDQEBW4module_id@2@2@Z 0000000180025460     libvcruntime:winapi_downlevel.obj
 0002:0000a460       $unwind$?try_get_function@@YAPEAXW4function_id@?A0x391cf84c@@QEBDQEBW4module_id@2@2@Z 0000000180025460     libucrt:winapi_thunks.obj
 0002:0000a480       $xdatasym                  0000000180025480     libvcruntime:handlers.obj
 0002:0000a4a0       $unwind$_strtoi64          00000001800254a0     libucrt:strtox.obj
 0002:0000a4a0       $unwind$_strtoui64         00000001800254a0     libucrt:strtox.obj
 0002:0000a4a0       $unwind$strtol             00000001800254a0     libucrt:strtox.obj
 0002:0000a4a0       $unwind$wcstol             00000001800254a0     libucrt:strtox.obj
 0002:0000a4a0       $unwind$wctomb_s           00000001800254a0     libucrt:wctomb.obj
 0002:0000a4a0       $unwind$_itow_s            00000001800254a0     libucrt:xtoa.obj
 0002:0000a4a0       $unwind$_invalid_parameter_noinfo 00000001800254a0     libucrt:invalid_parameter.obj
 0002:0000a4a0       $unwind$fflush             00000001800254a0     libucrt:fflush.obj
 0002:0000a4a0       $unwind$_log10_special     00000001800254a0     libucrt:log_special.obj
 0002:0000a4a8       $unwind$??$parse_integer@KV?$c_string_character_source@D@__crt_strtox@@@__crt_strtox@@YAKQEAU__crt_locale_pointers@@V?$c_string_character_source@D@0@H_N@Z 00000001800254a8     libucrt:strtox.obj
 0002:0000a4c4       $unwind$??$parse_integer@_KV?$c_string_character_source@D@__crt_strtox@@@__crt_strtox@@YA_KQEAU__crt_locale_pointers@@V?$c_string_character_source@D@0@H_N@Z 00000001800254c4     libucrt:strtox.obj
 0002:0000a4dc       $unwind$??$parse_integer@KV?$c_string_character_source@_W@__crt_strtox@@@__crt_strtox@@YAKQEAU__crt_locale_pointers@@V?$c_string_character_source@_W@0@H_N@Z 00000001800254dc     libucrt:strtox.obj
 0002:0000a4f4       $unwind$__stdio_common_vfwprintf 00000001800254f4     libucrt:output.obj
 0002:0000a4fc       $unwind$__stdio_common_vsnprintf_s 00000001800254fc     libucrt:output.obj
 0002:0000a514       $unwind$??$common_vsprintf@Vformat_validation_base@__crt_stdio_output@@D@@YAH_KQEAD0QEBDQEAU__crt_locale_pointers@@1@Z 0000000180025514     libucrt:output.obj
 0002:0000a514       $unwind$??$common_vsprintf@Vstandard_base@__crt_stdio_output@@_W@@YAH_KQEA_W0QEB_WQEAU__crt_locale_pointers@@QEAD@Z 0000000180025514     libucrt:output.obj
 0002:0000a534       $unwind$??$parse_command_line@D@@YAXPEADPEAPEAD0PEA_K2@Z 0000000180025534     libucrt:argv_parsing.obj
 0002:0000a534       $unwind$?write_string_impl@?$output_adapter_common@_WV?$stream_output_adapter@_W@__crt_stdio_output@@@__crt_stdio_output@@IEBAXQEB_WHQEAHAEAV__crt_deferred_errno_cache@@@Z 0000000180025534     libucrt:output.obj
 0002:0000a550       $unwind$?parse_int_from_format_string@?$output_processor@DV?$string_output_adapter@D@__crt_stdio_output@@V?$format_validation_base@DV?$string_output_adapter@D@__crt_stdio_output@@@2@@__crt_stdio_output@@AEAA_NQEAH@Z 0000000180025550     libucrt:output.obj
 0002:0000a550       $unwind$?process@?$output_processor@_WV?$stream_output_adapter@_W@__crt_stdio_output@@V?$standard_base@_WV?$stream_output_adapter@_W@__crt_stdio_output@@@2@@__crt_stdio_output@@QEAAHXZ 0000000180025550     libucrt:output.obj
 0002:0000a550       $unwind$?process@?$output_processor@_WV?$string_output_adapter@_W@__crt_stdio_output@@V?$standard_base@_WV?$string_output_adapter@_W@__crt_stdio_output@@@2@@__crt_stdio_output@@QEAAHXZ 0000000180025550     libucrt:output.obj
 0002:0000a564       $unwind$?parse_int_from_format_string@?$output_processor@_WV?$stream_output_adapter@_W@__crt_stdio_output@@V?$standard_base@_WV?$stream_output_adapter@_W@__crt_stdio_output@@@2@@__crt_stdio_output@@AEAA_NQEAH@Z 0000000180025564     libucrt:output.obj
 0002:0000a564       $unwind$?parse_int_from_format_string@?$output_processor@_WV?$string_output_adapter@_W@__crt_stdio_output@@V?$standard_base@_WV?$string_output_adapter@_W@__crt_stdio_output@@@2@@__crt_stdio_output@@AEAA_NQEAH@Z 0000000180025564     libucrt:output.obj
 0002:0000a578       $unwind$?state_case_type@?$output_processor@_WV?$stream_output_adapter@_W@__crt_stdio_output@@V?$standard_base@_WV?$stream_output_adapter@_W@__crt_stdio_output@@@2@@__crt_stdio_output@@AEAA_NXZ 0000000180025578     libucrt:output.obj
 0002:0000a598       $unwind$?type_case_c_tchar@?$output_processor@_WV?$stream_output_adapter@_W@__crt_stdio_output@@V?$standard_base@_WV?$stream_output_adapter@_W@__crt_stdio_output@@@2@@__crt_stdio_output@@AEAA_N_W@Z 0000000180025598     libucrt:output.obj
 0002:0000a598       $unwind$?type_case_c_tchar@?$output_processor@_WV?$string_output_adapter@_W@__crt_stdio_output@@V?$standard_base@_WV?$string_output_adapter@_W@__crt_stdio_output@@@2@@__crt_stdio_output@@AEAA_N_W@Z 0000000180025598     libucrt:output.obj
 0002:0000a5a8       $unwind$?type_case_a@?$output_processor@_WV?$stream_output_adapter@_W@__crt_stdio_output@@V?$standard_base@_WV?$stream_output_adapter@_W@__crt_stdio_output@@@2@@__crt_stdio_output@@AEAA_NXZ 00000001800255a8     libucrt:output.obj
 0002:0000a5a8       $unwind$?type_case_a@?$output_processor@_WV?$string_output_adapter@_W@__crt_stdio_output@@V?$standard_base@_WV?$string_output_adapter@_W@__crt_stdio_output@@@2@@__crt_stdio_output@@AEAA_NXZ 00000001800255a8     libucrt:output.obj
 0002:0000a5b8       $unwind$??$common_xtox@K_W@@YAHKQEA_W_KI_N@Z 00000001800255b8     libucrt:xtoa.obj
 0002:0000a5b8       $unwind$__acrt_DownlevelLocaleNameToLCID 00000001800255b8     libucrt:lcidtoname_downlevel.obj
 0002:0000a5b8       $unwind$??R<lambda_f03950bc5685219e0bcd2087efbe011e>@@QEBAHXZ 00000001800255b8     libucrt:onexit.obj
 0002:0000a5b8       $unwind$?type_case_integer@?$output_processor@DV?$string_output_adapter@D@__crt_stdio_output@@V?$format_validation_base@DV?$string_output_adapter@D@__crt_stdio_output@@@2@@__crt_stdio_output@@AEAA_NI_N@Z 00000001800255b8     libucrt:output.obj
 0002:0000a5b8       $unwind$?type_case_integer@?$output_processor@_WV?$stream_output_adapter@_W@__crt_stdio_output@@V?$standard_base@_WV?$stream_output_adapter@_W@__crt_stdio_output@@@2@@__crt_stdio_output@@AEAA_NI_N@Z 00000001800255b8     libucrt:output.obj
 0002:0000a5b8       $unwind$?type_case_integer@?$output_processor@_WV?$string_output_adapter@_W@__crt_stdio_output@@V?$standard_base@_WV?$string_output_adapter@_W@__crt_stdio_output@@@2@@__crt_stdio_output@@AEAA_NI_N@Z 00000001800255b8     libucrt:output.obj
 0002:0000a5d0       $unwind$?write_stored_string_tchar@?$output_processor@_WV?$stream_output_adapter@_W@__crt_stdio_output@@V?$standard_base@_WV?$stream_output_adapter@_W@__crt_stdio_output@@@2@@__crt_stdio_output@@AEAA_N_W@Z 00000001800255d0     libucrt:output.obj
 0002:0000a5e4       $unwind$??R<lambda_b579ea784fd840951dfbcbdaebf709fd>@@QEBAHXZ 00000001800255e4     libucrt:output.obj
 0002:0000a604       $unwind$??$write_multiple_characters@V?$stream_output_adapter@_W@__crt_stdio_output@@D@__crt_stdio_output@@YAXAEBV?$stream_output_adapter@_W@0@DHQEAH@Z 0000000180025604     libucrt:output.obj
 0002:0000a604       $unwind$?write_string@?$string_output_adapter@D@__crt_stdio_output@@QEBAXQEBDHQEAHAEAV__crt_deferred_errno_cache@@@Z 0000000180025604     libucrt:output.obj
 0002:0000a61c       $unwind$?write_string@?$string_output_adapter@_W@__crt_stdio_output@@QEBAXQEB_WHQEAHAEAV__crt_deferred_errno_cache@@@Z 000000018002561c     libucrt:output.obj
 0002:0000a634       $unwind$?state_case_type@?$output_processor@_WV?$string_output_adapter@_W@__crt_stdio_output@@V?$standard_base@_WV?$string_output_adapter@_W@__crt_stdio_output@@@2@@__crt_stdio_output@@AEAA_NXZ 0000000180025634     libucrt:output.obj
 0002:0000a658       $unwind$?write_stored_string_tchar@?$output_processor@_WV?$string_output_adapter@_W@__crt_stdio_output@@V?$standard_base@_WV?$string_output_adapter@_W@__crt_stdio_output@@@2@@__crt_stdio_output@@AEAA_N_W@Z 0000000180025658     libucrt:output.obj
 0002:0000a66c       $unwind$??$write_multiple_characters@V?$string_output_adapter@D@__crt_stdio_output@@D@__crt_stdio_output@@YAXAEBV?$string_output_adapter@D@0@DHQEAH@Z 000000018002566c     libucrt:output.obj
 0002:0000a66c       $unwind$??$write_multiple_characters@V?$string_output_adapter@_W@__crt_stdio_output@@D@__crt_stdio_output@@YAXAEBV?$string_output_adapter@_W@0@DHQEAH@Z 000000018002566c     libucrt:output.obj
 0002:0000a678       $unwind$??$type_case_integer_parse_into_buffer@I@?$output_processor@DV?$string_output_adapter@D@__crt_stdio_output@@V?$format_validation_base@DV?$string_output_adapter@D@__crt_stdio_output@@@2@@__crt_stdio_output@@AEAAXII_N@Z 0000000180025678     libucrt:output.obj
 0002:0000a678       $unwind$??$type_case_integer_parse_into_buffer@I@?$output_processor@_WV?$stream_output_adapter@_W@__crt_stdio_output@@V?$standard_base@_WV?$stream_output_adapter@_W@__crt_stdio_output@@@2@@__crt_stdio_output@@AEAAXII_N@Z 0000000180025678     libucrt:output.obj
 0002:0000a678       $unwind$??$type_case_integer_parse_into_buffer@I@?$output_processor@_WV?$string_output_adapter@_W@__crt_stdio_output@@V?$standard_base@_WV?$string_output_adapter@_W@__crt_stdio_output@@@2@@__crt_stdio_output@@AEAAXII_N@Z 0000000180025678     libucrt:output.obj
 0002:0000a678       $unwind$??$type_case_integer_parse_into_buffer@_K@?$output_processor@DV?$string_output_adapter@D@__crt_stdio_output@@V?$format_validation_base@DV?$string_output_adapter@D@__crt_stdio_output@@@2@@__crt_stdio_output@@AEAAX_KI_N@Z 0000000180025678     libucrt:output.obj
 0002:0000a678       $unwind$??$type_case_integer_parse_into_buffer@_K@?$output_processor@_WV?$stream_output_adapter@_W@__crt_stdio_output@@V?$standard_base@_WV?$stream_output_adapter@_W@__crt_stdio_output@@@2@@__crt_stdio_output@@AEAAX_KI_N@Z 0000000180025678     libucrt:output.obj
 0002:0000a678       $unwind$??$type_case_integer_parse_into_buffer@_K@?$output_processor@_WV?$string_output_adapter@_W@__crt_stdio_output@@V?$standard_base@_WV?$string_output_adapter@_W@__crt_stdio_output@@@2@@__crt_stdio_output@@AEAAX_KI_N@Z 0000000180025678     libucrt:output.obj
 0002:0000a680       $unwind$??$?RV<lambda_676bd5779251ec186b530f0a904b4b35>@@AEAV<lambda_b579ea784fd840951dfbcbdaebf709fd>@@V<lambda_10027885da78ada7fb00668d7e2e96b5>@@@?$__crt_seh_guarded_call@H@@QEAAH$$QEAV<lambda_676bd5779251ec186b530f0a904b4b35>@@AEAV<lambda_b579ea784fd840951dfbcbdaebf709fd>@@$$QEAV<lambda_10027885da78ada7fb00668d7e2e96b5>@@@Z 0000000180025680     libucrt:output.obj
 0002:0000a6a4       $unwind$?process@?$output_processor@DV?$string_output_adapter@D@__crt_stdio_output@@V?$format_validation_base@DV?$string_output_adapter@D@__crt_stdio_output@@@2@@__crt_stdio_output@@QEAAHXZ 00000001800256a4     libucrt:output.obj
 0002:0000a6b8       $unwind$?state_case_type@?$output_processor@DV?$string_output_adapter@D@__crt_stdio_output@@V?$format_validation_base@DV?$string_output_adapter@D@__crt_stdio_output@@@2@@__crt_stdio_output@@AEAA_NXZ 00000001800256b8     libucrt:output.obj
 0002:0000a6d0       $unwind$?type_case_a@?$output_processor@DV?$string_output_adapter@D@__crt_stdio_output@@V?$format_validation_base@DV?$string_output_adapter@D@__crt_stdio_output@@@2@@__crt_stdio_output@@AEAA_NXZ 00000001800256d0     libucrt:output.obj
 0002:0000a6dc       $unwind$?write_stored_string_tchar@?$output_processor@DV?$string_output_adapter@D@__crt_stdio_output@@V?$format_validation_base@DV?$string_output_adapter@D@__crt_stdio_output@@@2@@__crt_stdio_output@@AEAA_ND@Z 00000001800256dc     libucrt:output.obj
 0002:0000a6f4       $unwind$fwprintf           00000001800256f4     libucrt:assert.obj
 0002:0000a700       $unwind$swprintf           0000000180025700     libucrt:assert.obj
 0002:0000a710       $unwind$??$common_assert_to_stderr@_W@@YAXQEB_W0I@Z 0000000180025710     libucrt:assert.obj
 0002:0000a72c       $unwind$??$common_assert_to_message_box@_W@@YAXQEB_W0IQEAX@Z 000000018002572c     libucrt:assert.obj
 0002:0000a748       $unwind$??$common_assert_to_message_box_build_string@_W@@YAXQEA_W_KQEB_W2IQEAX@Z 0000000180025748     libucrt:assert.obj
 0002:0000a768       $unwind$strerror           0000000180025768     libucrt:strerror.obj
 0002:0000a774       $unwind$_mbsdec_l          0000000180025774     libucrt:mbsdec.obj
 0002:0000a774       $unwind$_stricmp_l         0000000180025774     libucrt:stricmp.obj
 0002:0000a780       $unwind$_query_new_handler 0000000180025780     libucrt:new_handler.obj
 0002:0000a7a0       $unwind$?common_exit@@YAXHW4_crt_exit_cleanup_mode@@W4_crt_exit_return_mode@@@Z 00000001800257a0     libucrt:exit.obj
 0002:0000a7ac       $unwind$??R<lambda_6e4b09c48022b2350581041d5f6b0c4c>@@QEBA@XZ 00000001800257ac     libucrt:exit.obj
 0002:0000a7cc       $unwind$??$?RV<lambda_d80eeec6fff315bfe5c115232f3240e3>@@AEAV<lambda_6e4b09c48022b2350581041d5f6b0c4c>@@V<lambda_2358e3775559c9db80273638284d5e45>@@@?$__crt_seh_guarded_call@X@@QEAAX$$QEAV<lambda_d80eeec6fff315bfe5c115232f3240e3>@@AEAV<lambda_6e4b09c48022b2350581041d5f6b0c4c>@@$$QEAV<lambda_2358e3775559c9db80273638284d5e45>@@@Z 00000001800257cc     libucrt:exit.obj
 0002:0000a7f0       $unwind$_configure_narrow_argv 00000001800257f0     libucrt:argv_parsing.obj
 0002:0000a804       $unwind$??$free_environment@D@@YAXQEAPEAD@Z 0000000180025804     libucrt:environment_initialization.obj
 0002:0000a804       $unwind$??$free_environment@_W@@YAXQEAPEA_W@Z 0000000180025804     libucrt:environment_initialization.obj
 0002:0000a810       $unwind$??$create_environment@D@@YAQEAPEADQEAD@Z 0000000180025810     libucrt:environment_initialization.obj
 0002:0000a828       $unwind$_execute_onexit_table 0000000180025828     libucrt:onexit.obj
 0002:0000a830       $unwind$??$?RV<lambda_7777bce6b2f8c936911f934f8298dc43>@@AEAV<lambda_f03950bc5685219e0bcd2087efbe011e>@@V<lambda_3883c3dff614d5e0c5f61bb1ac94921c>@@@?$__crt_seh_guarded_call@H@@QEAAH$$QEAV<lambda_7777bce6b2f8c936911f934f8298dc43>@@AEAV<lambda_f03950bc5685219e0bcd2087efbe011e>@@$$QEAV<lambda_3883c3dff614d5e0c5f61bb1ac94921c>@@@Z 0000000180025830     libucrt:onexit.obj
 0002:0000a854       $unwind$terminate          0000000180025854     libucrt:terminate.obj
 0002:0000a878       $xdatasym                  0000000180025878     libucrt:strncmp.obj
 0002:0000a87c       $unwind$__acrt_call_reportfault 000000018002587c     libucrt:invalid_parameter.obj
 0002:0000a89c       $unwind$__acrt_MessageBoxW 000000018002589c     libucrt:winapi_thunks.obj
 0002:0000a89c       $unwind$_invalid_parameter 000000018002589c     libucrt:invalid_parameter.obj
 0002:0000a8b0       $unwind$iswctype           00000001800258b0     libucrt:iswctype.obj
 0002:0000a8bc       $unwind$_isctype_l         00000001800258bc     libucrt:isctype.obj
 0002:0000a8d8       $unwind$_free_base         00000001800258d8     libucrt:free_base.obj
 0002:0000a8d8       $unwind$?destroy_fls@@YAXPEAX@Z 00000001800258d8     libucrt:per_thread_data.obj
 0002:0000a8d8       $unwind$__acrt_locale_free_numeric 00000001800258d8     libucrt:initnum.obj
 0002:0000a8d8       $unwind$__acrt_locale_free_lc_time_if_unreferenced 00000001800258d8     libucrt:locale_refcounting.obj
 0002:0000a8e0       $unwind$?construct_ptd_array@@YAXQEAU__acrt_ptd@@@Z 00000001800258e0     libucrt:per_thread_data.obj
 0002:0000a8e8       $unwind$?destroy_ptd_array@@YAXQEAU__acrt_ptd@@@Z 00000001800258e8     libucrt:per_thread_data.obj
 0002:0000a8f0       $unwind$??$?RV<lambda_0ae27a3a962d80f24befdcbee591983d>@@AEAV<lambda_8d0ee55de4b1038c4002e0adecdf1839>@@V<lambda_dc504788e8f1664fe9b84e20bfb512f2>@@@?$__crt_seh_guarded_call@X@@QEAAX$$QEAV<lambda_0ae27a3a962d80f24befdcbee591983d>@@AEAV<lambda_8d0ee55de4b1038c4002e0adecdf1839>@@$$QEAV<lambda_dc504788e8f1664fe9b84e20bfb512f2>@@@Z 00000001800258f0     libucrt:per_thread_data.obj
 0002:0000a914       $unwind$??$?RV<lambda_aa87e3671a710a21b5dc78c0bdf72e11>@@AEAV<lambda_92619d2358a28f41a33ba319515a20b9>@@V<lambda_6992ecaafeb10aed2b74cb1fae11a551>@@@?$__crt_seh_guarded_call@X@@QEAAX$$QEAV<lambda_aa87e3671a710a21b5dc78c0bdf72e11>@@AEAV<lambda_92619d2358a28f41a33ba319515a20b9>@@$$QEAV<lambda_6992ecaafeb10aed2b74cb1fae11a551>@@@Z 0000000180025914     libucrt:per_thread_data.obj
 0002:0000a938       $unwind$??$?RV<lambda_f2e299630e499de9f9a165e60fcd3db5>@@AEAV<lambda_2ae9d31cdba2644fcbeaf08da7c24588>@@V<lambda_40d01ff24d0e7b3814fdbdcee8eab3c7>@@@?$__crt_seh_guarded_call@X@@QEAAX$$QEAV<lambda_f2e299630e499de9f9a165e60fcd3db5>@@AEAV<lambda_2ae9d31cdba2644fcbeaf08da7c24588>@@$$QEAV<lambda_40d01ff24d0e7b3814fdbdcee8eab3c7>@@@Z 0000000180025938     libucrt:per_thread_data.obj
 0002:0000a95c       $unwind$??$?RV<lambda_2d41944a1d46af3157314b8a01080d33>@@AEAV<lambda_8f455de75cd7d7f24b4096f044d8b9e6>@@V<lambda_aa500f224e6afead328df44964fe2772>@@@?$__crt_seh_guarded_call@X@@QEAAX$$QEAV<lambda_2d41944a1d46af3157314b8a01080d33>@@AEAV<lambda_8f455de75cd7d7f24b4096f044d8b9e6>@@$$QEAV<lambda_aa500f224e6afead328df44964fe2772>@@@Z 000000018002595c     libucrt:per_thread_data.obj
 0002:0000a980       $unwind$__acrt_uninitialize_locale 0000000180025980     libucrt:wsetlocale.obj
 0002:0000a980       $unwind$__acrt_get_sigabrt_handler 0000000180025980     libucrt:signal.obj
 0002:0000a988       $unwind$??$?RV<lambda_410d79af7f07d98d83a3f525b3859a53>@@AEAV<lambda_3e16ef9562a7dcce91392c22ab16ea36>@@V<lambda_38119f0e861e05405d8a144b9b982f0a>@@@?$__crt_seh_guarded_call@X@@QEAAX$$QEAV<lambda_410d79af7f07d98d83a3f525b3859a53>@@AEAV<lambda_3e16ef9562a7dcce91392c22ab16ea36>@@$$QEAV<lambda_38119f0e861e05405d8a144b9b982f0a>@@@Z 0000000180025988     libucrt:wsetlocale.obj
 0002:0000a9b0       $unwind$?fp_format_e@@YAHQEBNQEAD_K12H_NIQEAU__crt_locale_pointers@@@Z 00000001800259b0     libucrt:cvt.obj
 0002:0000a9b0       $unwind$_mbtowc_l          00000001800259b0     libucrt:mbtowc.obj
 0002:0000a9b0       $unwind$__acrt_LCMapStringEx 00000001800259b0     libucrt:winapi_thunks.obj
 0002:0000a9c4       $unwind$_wctomb_s_l        00000001800259c4     libucrt:wctomb.obj
 0002:0000a9d4       $unwind$__acrt_fp_format   00000001800259d4     libucrt:cvt.obj
 0002:0000a9e8       $unwind$?fp_format_e_internal@@YAHQEAD_KH_NIQEAU_strflt@@2QEAU__crt_locale_pointers@@@Z 00000001800259e8     libucrt:cvt.obj
 0002:0000aa00       $unwind$?fp_format_a@@YAHQEBNPEAD_KQEAD2H_NIQEAU__crt_locale_pointers@@@Z 0000000180025a00     libucrt:cvt.obj
 0002:0000aa1c       $unwind$__dcrt_get_narrow_environment_from_os 0000000180025a1c     libucrt:get_environment_from_os.obj
 0002:0000aa1c       $unwind$?fp_format_f_internal@@YAHQEAD_KHQEAU_strflt@@_NQEAU__crt_locale_pointers@@@Z 0000000180025a1c     libucrt:cvt.obj
 0002:0000aa1c       $unwind$??$__acrt_wcs_to_mbs_cp@U__crt_win32_buffer_internal_dynamic_resizing@@@@YAHQEB_WAEAV?$__crt_win32_buffer@DU__crt_win32_buffer_internal_dynamic_resizing@@@@I@Z 0000000180025a1c     libucrt:argv_wildcards.obj
 0002:0000aa34       $unwind$?fp_format_g@@YAHQEBNQEAD_K12H_NIQEAU__crt_locale_pointers@@@Z 0000000180025a34     libucrt:cvt.obj
 0002:0000aa48       $unwind$_fputwc_nolock     0000000180025a48     libucrt:fputwc.obj
 0002:0000aa64       $unwind$?initialize_stdio_handles_nolock@@YAXXZ 0000000180025a64     libucrt:ioinit.obj
 0002:0000aa64       $unwind$__acrt_initialize_stdio 0000000180025a64     libucrt:_file.obj
 0002:0000aa7c       $unwind$__acrt_stdio_end_temporary_buffering_nolock 0000000180025a7c     libucrt:_sftbuf.obj
 0002:0000aa84       $unwind$__acrt_initialize_lowio 0000000180025a84     libucrt:ioinit.obj
 0002:0000aaa4       $unwind$?initialize_inherited_file_handles_nolock@@YAXXZ 0000000180025aa4     libucrt:ioinit.obj
 0002:0000aac0       $unwind$?__mbrtowc_utf8@__crt_mbstring@@YA_KPEA_WPEBD_KPEAU_Mbstatet@@@Z 0000000180025ac0     libucrt:mbrtowc.obj
 0002:0000aac0       $unwind$??$common_xtox_s@K_W@@YAHKQEA_W_KI_N@Z 0000000180025ac0     libucrt:xtoa.obj
 0002:0000aac8       $unwind$__acrt_GetModuleFileNameA 0000000180025ac8     libucrt:getmodulefilenamea.obj
 0002:0000aae4       $unwind$__dcrt_write_console 0000000180025ae4     libucrt:initcon.obj
 0002:0000aae4       $unwind$??$__acrt_wcs_to_mbs_cp@U__crt_win32_buffer_no_resizing@@@@YAHQEB_WAEAV?$__crt_win32_buffer@DU__crt_win32_buffer_no_resizing@@@@I@Z 0000000180025ae4     libucrt:getmodulefilenamea.obj
 0002:0000aaf8       $unwind$?common_flush_all@@YAH_N@Z 0000000180025af8     libucrt:fflush.obj
 0002:0000ab00       $unwind$??$?RV<lambda_842d9ff0dc9ef11c61343bbaebe7f885>@@AEAV<lambda_c5860995281e5c4ce005b3de8f5874ee>@@V<lambda_d90129c13df834fdcbf8d2b88dafcf2d>@@@?$__crt_seh_guarded_call@X@@QEAAX$$QEAV<lambda_842d9ff0dc9ef11c61343bbaebe7f885>@@AEAV<lambda_c5860995281e5c4ce005b3de8f5874ee>@@$$QEAV<lambda_d90129c13df834fdcbf8d2b88dafcf2d>@@@Z 0000000180025b00     libucrt:fflush.obj
 0002:0000ab24       $unwind$??$?RV<lambda_886d6c58226a84441f68b9f2b8217b83>@@AEAV<lambda_ab61a845afdef5b7c387490eaf3616ee>@@V<lambda_f7f22ab5edc0698d5f6905b0d3f44752>@@@?$__crt_seh_guarded_call@X@@QEAAX$$QEAV<lambda_886d6c58226a84441f68b9f2b8217b83>@@AEAV<lambda_ab61a845afdef5b7c387490eaf3616ee>@@$$QEAV<lambda_f7f22ab5edc0698d5f6905b0d3f44752>@@@Z 0000000180025b24     libucrt:fflush.obj
 0002:0000ab4c       $unwind$??$?RV<lambda_c376a267cfb53b6959b3b692ec76b120>@@AEAV<lambda_9a32fed5bf61b6b509b2d3f6003082a1>@@V<lambda_572fbb9fa0ab338edf41edfd4b5fcc8d>@@@?$__crt_seh_guarded_call@H@@QEAAH$$QEAV<lambda_c376a267cfb53b6959b3b692ec76b120>@@AEAV<lambda_9a32fed5bf61b6b509b2d3f6003082a1>@@$$QEAV<lambda_572fbb9fa0ab338edf41edfd4b5fcc8d>@@@Z 0000000180025b4c     libucrt:fflush.obj
 0002:0000ab70       $unwind$setvbuf            0000000180025b70     libucrt:setvbuf.obj
 0002:0000ab78       $unwind$??$?RV<lambda_84ec643ea9557e2f7dc01bb0e9624395>@@AEAV<lambda_ca71763b3c0644891230e4f79ea54fa6>@@V<lambda_439a761618c59b0600e24586724d733b>@@@?$__crt_seh_guarded_call@H@@QEAAH$$QEAV<lambda_84ec643ea9557e2f7dc01bb0e9624395>@@AEAV<lambda_ca71763b3c0644891230e4f79ea54fa6>@@$$QEAV<lambda_439a761618c59b0600e24586724d733b>@@@Z 0000000180025b78     libucrt:setvbuf.obj
 0002:0000ab9c       $unwind$raise              0000000180025b9c     libucrt:signal.obj
 0002:0000abd8       $unwind$??$?RV<lambda_450d765d439847d4c735a33c368b5fc0>@@AEAV<lambda_44731a7d0e6d81c3e6aa82d741081786>@@V<lambda_601a2a7da3b7a96e9554ac7215c4b07c>@@@?$__crt_seh_guarded_call@P6AXH@Z@@QEAAP6AXH@Z$$QEAV<lambda_450d765d439847d4c735a33c368b5fc0>@@AEAV<lambda_44731a7d0e6d81c3e6aa82d741081786>@@$$QEAV<lambda_601a2a7da3b7a96e9554ac7215c4b07c>@@@Z 0000000180025bd8     libucrt:signal.obj
 0002:0000abfc       $unwind$??$__acrt_mbs_to_wcs_cp@U__crt_win32_buffer_internal_dynamic_resizing@@@@YAHQEBDAEAV?$__crt_win32_buffer@_WU__crt_win32_buffer_internal_dynamic_resizing@@@@I@Z 0000000180025bfc     libucrt:argv_wildcards.obj
 0002:0000ac14       $unwind$??$common_expand_argv_wildcards@D@@YAHQEAPEADQEAPEAPEAD@Z 0000000180025c14     libucrt:argv_wildcards.obj
 0002:0000ac2c       $unwind$??$copy_and_add_argument_to_buffer@D@@YAHQEBD0_KAEAV?$argument_list@D@?A0x5f5c8891@@@Z 0000000180025c2c     libucrt:argv_wildcards.obj
 0002:0000ac48       $unwind$??$expand_argument_wildcards@D@@YAHQEAD0AEAV?$argument_list@D@?A0x5f5c8891@@@Z 0000000180025c48     libucrt:argv_wildcards.obj
 0002:0000ac6c       $unwind$_setmbcp_nolock    0000000180025c6c     libucrt:mbctype.obj
 0002:0000ac8c       $unwind$__dcrt_lowio_ensure_console_output_initialized 0000000180025c8c     libucrt:initcon.obj
 0002:0000ac8c       $unwind$_isleadbyte_l      0000000180025c8c     libucrt:_wctype.obj
 0002:0000ac8c       $unwind$?getSystemCP@@YAHH@Z 0000000180025c8c     libucrt:mbctype.obj
 0002:0000ac94       $unwind$?update_thread_multibyte_data_internal@@YAPEAU__crt_multibyte_data@@QEAU__acrt_ptd@@QEAPEAU1@@Z 0000000180025c94     libucrt:mbctype.obj
 0002:0000acbc       $unwind$?setmbcp_internal@@YAHH_NQEAU__acrt_ptd@@QEAPEAU__crt_multibyte_data@@@Z 0000000180025cbc     libucrt:mbctype.obj
 0002:0000accc       $unwind$?setSBUpLow@@YAXPEAU__crt_multibyte_data@@@Z 0000000180025ccc     libucrt:mbctype.obj
 0002:0000ace8       $unwind$??$?RV<lambda_efdfa57d1f175319df784efa44bb7b81>@@AEAV<lambda_5f0a4c1567f8adc6734073e5d1e1b35c>@@V<lambda_2e8a7d3640ea6ccb4c2413664c2db6fd>@@@?$__crt_seh_guarded_call@X@@QEAAX$$QEAV<lambda_efdfa57d1f175319df784efa44bb7b81>@@AEAV<lambda_5f0a4c1567f8adc6734073e5d1e1b35c>@@$$QEAV<lambda_2e8a7d3640ea6ccb4c2413664c2db6fd>@@@Z 0000000180025ce8     libucrt:mbctype.obj
 0002:0000ad0c       $unwind$?x_ismbbtype_l@@YAHPEAU__crt_locale_pointers@@IHH@Z 0000000180025d0c     libucrt:ismbbyte.obj
 0002:0000ad1c       $unwind$__GSHandlerCheckCommon 0000000180025d1c     LIBCMT:gshandler.obj
 0002:0000ad1c       $unwind$__acrt_WideCharToMultiByte 0000000180025d1c     libucrt:widechartomultibyte.obj
 0002:0000ad24       $unwind$__acrt_initialize_winapi_thunks 0000000180025d24     libucrt:winapi_thunks.obj
 0002:0000ad2c       $unwind$__acrt_is_interactive 0000000180025d2c     libucrt:winapi_thunks.obj
 0002:0000ad40       $unwind$__acrt_GetStringTypeA 0000000180025d40     libucrt:getstringtypea.obj
 0002:0000ad68       $unwind$__acrt_update_thread_locale_data 0000000180025d68     libucrt:locale_refcounting.obj
 0002:0000ad8c       $unwind$__acrt_locale_free_monetary 0000000180025d8c     libucrt:initmon.obj
 0002:0000ad94       $unwind$__acrt_locale_free_time 0000000180025d94     libucrt:inittime.obj
 0002:0000ada4       $unwind$?__mbsrtowcs_utf8@__crt_mbstring@@YA_KPEA_WPEAPEBD_KPEAU_Mbstatet@@@Z 0000000180025da4     libucrt:mbrtowc.obj
 0002:0000adbc       $unwind$__acrt_fltout      0000000180025dbc     libucrt:cfout.obj
 0002:0000addc       $unwind$?divide@__crt_strtox@@YA_KAEAUbig_integer@1@AEBU21@@Z 0000000180025ddc     libucrt:cfout.obj
 0002:0000adf4       $chain$0$?divide@__crt_strtox@@YA_KAEAUbig_integer@1@AEBU21@@Z 0000000180025df4     libucrt:cfout.obj
 0002:0000ae08       $chain$1$?divide@__crt_strtox@@YA_KAEAUbig_integer@1@AEBU21@@Z 0000000180025e08     libucrt:cfout.obj
 0002:0000ae18       $unwind$??$write_buffer_nolock@D@@YA_NDV__crt_stdio_stream@@@Z 0000000180025e18     libucrt:_flsbuf.obj
 0002:0000ae28       $unwind$??$write_buffer_nolock@_W@@YA_N_WV__crt_stdio_stream@@@Z 0000000180025e28     libucrt:_flsbuf.obj
 0002:0000ae38       $unwind$_fcloseall         0000000180025e38     libucrt:closeall.obj
 0002:0000ae5c       $unwind$__acrt_lowio_destroy_handle_array 0000000180025e5c     libucrt:osfinfo.obj
 0002:0000ae6c       $unwind$__acrt_lowio_ensure_fh_exists 0000000180025e6c     libucrt:osfinfo.obj
 0002:0000ae98       $unwind$_close             0000000180025e98     libucrt:close.obj
 0002:0000ae98       $unwind$_commit            0000000180025e98     libucrt:commit.obj
 0002:0000aea0       $unwind$??$?RV<lambda_a37b2b86f63e897a80ea819b0eb08c01>@@AEAV<lambda_38ce7e780aa69e748d6df282ebc68efe>@@V<lambda_99fb1378e971ab6e7edea83e3a7a83a2>@@@?$__crt_seh_guarded_call@H@@QEAAH$$QEAV<lambda_a37b2b86f63e897a80ea819b0eb08c01>@@AEAV<lambda_38ce7e780aa69e748d6df282ebc68efe>@@$$QEAV<lambda_99fb1378e971ab6e7edea83e3a7a83a2>@@@Z 0000000180025ea0     libucrt:commit.obj
 0002:0000aec4       $unwind$_write             0000000180025ec4     libucrt:write.obj
 0002:0000aef4       $unwind$_write_nolock      0000000180025ef4     libucrt:write.obj
 0002:0000af0c       $unwind$?write_double_translated_ansi_nolock@@YA?AUwrite_result@?A0x17268360@@HQEBDI@Z 0000000180025f0c     libucrt:write.obj
 0002:0000af30       $unwind$?write_text_ansi_nolock@@YA?AUwrite_result@?A0x17268360@@HQEBDI@Z 0000000180025f30     libucrt:write.obj
 0002:0000af30       $unwind$?write_text_utf16le_nolock@@YA?AUwrite_result@?A0x17268360@@HQEBDI@Z 0000000180025f30     libucrt:write.obj
 0002:0000af50       $unwind$?write_text_utf8_nolock@@YA?AUwrite_result@?A0x17268360@@HQEBDI@Z 0000000180025f50     libucrt:write.obj
 0002:0000af74       $unwind$qsort              0000000180025f74     libucrt:qsort.obj
 0002:0000af8c       $chain$4$qsort             0000000180025f8c     libucrt:qsort.obj
 0002:0000afb0       $chain$5$qsort             0000000180025fb0     libucrt:qsort.obj
 0002:0000afc0       $unwind$strpbrk            0000000180025fc0     libucrt:strpbrk.obj
 0002:0000afd0       $unwind$fallbackMethod     0000000180025fd0     libucrt:strpbrk.obj
 0002:0000afe0       $unwind$__acrt_LCMapStringA 0000000180025fe0     libucrt:lcmapstringa.obj
 0002:0000aff0       $unwind$?__acrt_LCMapStringA_stat@@YAHPEAU__crt_locale_pointers@@PEB_WKPEBDHPEADHHH@Z 0000000180025ff0     libucrt:lcmapstringa.obj
 0002:0000b018       $unwind$?__mbrtoc32_utf8@__crt_mbstring@@YA_KPEA_UPEBD_KPEAU_Mbstatet@@@Z 0000000180026018     libucrt:mbrtoc32.obj
 0002:0000b038       $xdatasym                  0000000180026038     libucrt:log10.obj
 0002:0000b044       $unwind$??$common_lseek@_J@@YA_JH_JH@Z 0000000180026044     libucrt:lseek.obj
 0002:0000b074       $unwind$fclose             0000000180026074     libucrt:fclose.obj
 0002:0000b098       $unwind$_putwch_nolock     0000000180026098     libucrt:putwch.obj
 0002:0000b0a0       $unwind$__acrt_fenv_set_control 00000001800260a0     libucrt:_fenvutils.obj
 0002:0000b0b0       $unwind$_call_matherr      00000001800260b0     libucrt:libm_error.obj
 0002:0000b0b8       $unwind$_handle_error      00000001800260b8     libucrt:libm_error.obj
 0002:0000b0d8       $unwind$__acrt_initialize_fma3 00000001800260d8     libucrt:fma3_available.obj
 0002:0000b0e0       $unwind$_log_special_common 00000001800260e0     libucrt:log_special.obj
 0002:0000b0ec       $unwind$??$?RV<lambda_751a882b2c74d4b022dec766aa51a29a>@@AEAV<lambda_628dfdc04ba53c8bfc02c9951375f3f5>@@V<lambda_f6c7be5f7998530c34de24c7437d6b54>@@@?$__crt_seh_guarded_call@H@@QEAAH$$QEAV<lambda_751a882b2c74d4b022dec766aa51a29a>@@AEAV<lambda_628dfdc04ba53c8bfc02c9951375f3f5>@@$$QEAV<lambda_f6c7be5f7998530c34de24c7437d6b54>@@@Z 00000001800260ec     libucrt:close.obj
 0002:0000b110       $xdatasym                  0000000180026110     libucrt:fpsr.obj
 0002:0000b118       $unwind$_raise_exc_ex      0000000180026118     libucrt:fpexcept.obj
 0002:0000b12c       $unwind$_ctrlfp            000000018002612c     libucrt:fpctrl.obj
 0002:0000b154       $unwind$?DloadObtainSection@@YAPEAXPEAK0@Z 0000000180026154     DelayImp:delayhlp.obj
 0002:0000b164       $unwind$?DloadMakePermanentImageCommit@@YAXPEAX_K@Z 0000000180026164     DelayImp:delayhlp.obj
 0002:0000b170       $unwind$?DloadProtectSection@@YAXKPEAK@Z 0000000180026170     DelayImp:delayhlp.obj
 0002:0000b180       $unwind$__delayLoadHelper2 0000000180026180     DelayImp:delayhlp.obj
 0002:0000b19c       $unwind$_IsNonwritableInCurrentImage 000000018002619c     LIBCMT:pesect.obj
 0002:0000b1c0       $xdatasym                  00000001800261c0     LIBCMT:chkstk.obj
 0002:0000b1c8       $xdatasym                  00000001800261c8     libvcruntime:memcmp.obj
 0002:0000c200       .edata                     0000000180027200     binding.exp
 0002:0000c228       rgpv                       0000000180027228     binding.exp
 0002:0000c22c       rgszName                   000000018002722c     binding.exp
 0002:0000c230       rgwOrd                     0000000180027230     binding.exp
 0002:0000c232       szName                     0000000180027232     binding.exp
 0002:0000c23f       $N00001                    000000018002723f     binding.exp
 0002:0000c4ec       .idata$6                   00000001800274ec     kernel32:KERNEL32.dll
 0003:00000030       ?__vcrt_flsindex@@3KA      0000000180028030     libvcruntime:per_thread_data.obj
 0003:00000040       ?errno_no_memory@@3HA      0000000180028040     libucrt:errno.obj
 0003:00000044       ?doserrno_no_memory@@3KA   0000000180028044     libucrt:errno.obj
 0003:00000058       ?__acrt_flsindex@@3KA      0000000180028058     libucrt:per_thread_data.obj
 0003:00000560       _mbctypes                  0000000180028560     libucrt:mbctype.obj
 0003:00000670       _mbcasemaps                0000000180028670     libucrt:mbctype.obj
 0003:00000770       ?__rgctypeflag@@3PADA      0000000180028770     libucrt:mbctype.obj
 0003:00000780       ?__rgcode_page_info@@3PAUcode_page_info@@A 0000000180028780     libucrt:mbctype.obj
 0003:00000a20       ?__dcrt_lowio_console_output_handle@@3PEAXEA 0000000180028a20     libucrt:initcon.obj
 0003:00000a30       ?dazSupported@?1??_ctrlfp@@9@9 0000000180028a30     libucrt:fpctrl.obj
 0003:00000a50       _module                    0000000180028a50     binding.obj
 0003:00000ca8       ?__proc_attached@@3HA      0000000180028ca8     LIBCMT:dll_dllmain.obj
 0003:00000cb0       GS_ExceptionRecord         0000000180028cb0     LIBCMT:gs_report.obj
 0003:00000d50       GS_ContextRecord           0000000180028d50     LIBCMT:gs_report.obj
 0003:00001248       ?is_initialized_as_dll@@3_NA 0000000180029248     LIBCMT:utility.obj
 0003:00001249       ?module_local_atexit_table_initialized@@3_NA 0000000180029249     LIBCMT:utility.obj
 0003:00001250       ?module_local_atexit_table@@3U_onexit_table_t@@A 0000000180029250     LIBCMT:utility.obj
 0003:00001268       ?module_local_at_quick_exit_table@@3U_onexit_table_t@@A 0000000180029268     LIBCMT:utility.obj
 0003:000012d0       ?heap@@3V_HeapManager@@A   00000001800292d0     libvcruntime:undname.obj
 0003:00001300       ?__vcrt_startup_thread_ptd@@3U__vcrt_ptd@@A 0000000180029300     libvcruntime:per_thread_data.obj
 0003:00001380       __vcrt_lock_table          0000000180029380     libvcruntime:locks.obj
 0003:000013a8       __vcrt_locks_initialized   00000001800293a8     libvcruntime:locks.obj
 0003:000013b0       ?module_handles@@3PAPEAUHINSTANCE__@@A 00000001800293b0     libvcruntime:winapi_downlevel.obj
 0003:000013c8       ?function_pointers@@3PAPEAXA 00000001800293c8     libvcruntime:winapi_downlevel.obj
 0003:000013f8       ?__acrt_new_handler@@3V?$dual_state_global@P6AH_K@Z@__crt_state_management@@A 00000001800293f8     libucrt:new_handler.obj
 0003:00001400       ?c_termination_complete@@3JA 0000000180029400     libucrt:exit.obj
 0003:00001408       ?thread_local_exit_callback_func@@3P6AXPEAXK0@ZEA 0000000180029408     libucrt:exit.obj
 0003:00001420       ?program_name@?1???$common_configure_argv@D@@YAHW4_crt_argv_mode@@@Z@4PADA 0000000180029420     libucrt:argv_parsing.obj
 0003:00001578       ?__acrt_invalid_parameter_handler@@3V?$dual_state_global@P6AXPEB_W00I_K@Z@__crt_state_management@@A 0000000180029578     libucrt:invalid_parameter.obj
 0003:00001590       ?internal_state@?1??_mbtowc_l@@9@4U_Mbstatet@@A 0000000180029590     libucrt:mbtowc.obj
 0003:000015b0       ?enable_percent_n@@3_KA    00000001800295b0     libucrt:printf_count_output.obj
 0003:000019d4       ?__acrt_app_type@@3W4_crt_app_type@@A 00000001800299d4     libucrt:report_runtime_error.obj
 0003:000019d8       __acrt_error_mode          00000001800299d8     libucrt:set_error_mode.obj
 0003:000019e0       ?ctrlc_action@@3V?$dual_state_global@P6AXH@Z@__crt_state_management@@A 00000001800299e0     libucrt:signal.obj
 0003:000019e8       ?ctrlbreak_action@@3V?$dual_state_global@P6AXH@Z@__crt_state_management@@A 00000001800299e8     libucrt:signal.obj
 0003:000019f0       ?abort_action@@3V?$dual_state_global@P6AXH@Z@__crt_state_management@@A 00000001800299f0     libucrt:signal.obj
 0003:000019f8       ?term_action@@3V?$dual_state_global@P6AXH@Z@__crt_state_management@@A 00000001800299f8     libucrt:signal.obj
 0003:00001a00       ?__acrt_lock_table@@3PAU_RTL_CRITICAL_SECTION@@A 0000000180029a00     libucrt:locks.obj
 0003:00001c30       ?__acrt_locks_initialized@@3IA 0000000180029c30     libucrt:locks.obj
 0003:00001c34       ?state_cache@?1???$get_cached_win_policy@Udeveloper_information_policy_properties@?1??__acrt_get_developer_information_policy@@YA?AW4developer_information_policy@@XZ@@@YA?AW4developer_information_policy@@W4AppPolicyShowDeveloperDiagnostic@@@Z@4JA 0000000180029c34     libucrt:win_policies.obj
 0003:00001c38       ?state_cache@?1???$get_cached_win_policy@Uwindowing_model_policy_properties@?1??__acrt_get_windowing_model_policy@@YA?AW4windowing_model_policy@@XZ@@@YA?AW4windowing_model_policy@@W4AppPolicyWindowingModel@@@Z@4JA 0000000180029c38     libucrt:win_policies.obj
 0003:00001c58       ?fSystemSet@@3HA           0000000180029c58     libucrt:mbctype.obj
 0003:00001c5c       ?initialized@?1??__acrt_initialize_multibyte@@9@4_NA 0000000180029c5c     libucrt:mbctype.obj
 0003:00001c90       ?module_handles@@3PAPEAUHINSTANCE__@@A 0000000180029c90     libucrt:winapi_thunks.obj
 0003:00001d30       ?encoded_function_pointers@@3PAPEAXA 0000000180029d30     libucrt:winapi_thunks.obj
 0003:00001e48       ?user_matherr@@3V?$dual_state_global@P6AHPEAU_exception@@@Z@__crt_state_management@@A 0000000180029e48     libucrt:matherr.obj
 0003:00001e58       ?__acrt_global_new_mode@@3V?$dual_state_global@J@__crt_state_management@@A 0000000180029e58     libucrt:new_mode.obj
 0003:00001e60       ?internal_pst@?1??__mbrtoc32_utf8@__crt_mbstring@@YA_KPEA_UPEBD_KPEAU_Mbstatet@@@Z@4U3@A 0000000180029e60     libucrt:mbrtoc32.obj
 0004:00000018       $pdata$??2@YAPEAX_K@Z      000000018002a018     LIBCMT:new_scalar.obj
 0004:00000024       $pdata$?dllmain_crt_process_attach@@YAHQEAUHINSTANCE__@@QEAX@Z 000000018002a024     LIBCMT:dll_dllmain.obj
 0004:00000030       $pdata$?fin$0@?0??dllmain_crt_process_attach@@YAHQEAUHINSTANCE__@@QEAX@Z@4HA 000000018002a030     LIBCMT:dll_dllmain.obj
 0004:0000003c       $pdata$?dllmain_crt_process_detach@@YAH_N@Z 000000018002a03c     LIBCMT:dll_dllmain.obj
 0004:00000048       $pdata$?fin$0@?0??dllmain_crt_process_detach@@YAH_N@Z@4HA 000000018002a048     LIBCMT:dll_dllmain.obj
 0004:00000054       $pdata$?fin$1@?0??dllmain_crt_process_detach@@YAH_N@Z@4HA 000000018002a054     LIBCMT:dll_dllmain.obj
 0004:00000060       $pdata$?dllmain_crt_dispatch@@YAHQEAUHINSTANCE__@@KQEAX@Z 000000018002a060     LIBCMT:dll_dllmain.obj
 0004:0000006c       $pdata$?dllmain_dispatch@@YAHQEAUHINSTANCE__@@KQEAX@Z 000000018002a06c     LIBCMT:dll_dllmain.obj
 0004:00000078       $pdata$?filt$0@?0??dllmain_dispatch@@YAHQEAUHINSTANCE__@@KQEAX@Z@4HA 000000018002a078     LIBCMT:dll_dllmain.obj
 0004:00000084       $pdata$_DllMainCRTStartup  000000018002a084     LIBCMT:dll_dllmain.obj
 0004:00000090       $pdata$__report_securityfailure 000000018002a090     LIBCMT:gs_report.obj
 0004:0000009c       $pdata$__report_rangecheckfailure 000000018002a09c     LIBCMT:gs_report.obj
 0004:000000a8       $pdata$__report_gsfailure  000000018002a0a8     LIBCMT:gs_report.obj
 0004:000000b4       $pdata$capture_current_context 000000018002a0b4     LIBCMT:gs_report.obj
 0004:000000c0       $pdata$capture_previous_context 000000018002a0c0     LIBCMT:gs_report.obj
 0004:000000cc       $pdata$__raise_securityfailure 000000018002a0cc     LIBCMT:gs_report.obj
 0004:000000d8       $pdata$??0exception@std@@QEAA@AEBV01@@Z 000000018002a0d8     LIBCMT:throw_bad_alloc.obj
 0004:000000e4       $pdata$??_Gbad_alloc@std@@UEAAPEAXI@Z 000000018002a0e4     LIBCMT:throw_bad_alloc.obj
 0004:000000e4       $pdata$??_Gbad_array_new_length@std@@UEAAPEAXI@Z 000000018002a0e4     LIBCMT:throw_bad_alloc.obj
 0004:000000e4       $pdata$??_Gexception@std@@UEAAPEAXI@Z 000000018002a0e4     LIBCMT:throw_bad_alloc.obj
 0004:000000f0       $pdata$??0bad_alloc@std@@QEAA@AEBV01@@Z 000000018002a0f0     LIBCMT:throw_bad_alloc.obj
 0004:000000fc       $pdata$??0bad_array_new_length@std@@QEAA@AEBV01@@Z 000000018002a0fc     LIBCMT:throw_bad_alloc.obj
 0004:00000108       $pdata$?__scrt_throw_std_bad_alloc@@YAXXZ 000000018002a108     LIBCMT:throw_bad_alloc.obj
 0004:00000114       $pdata$?__scrt_throw_std_bad_array_new_length@@YAXXZ 000000018002a114     LIBCMT:throw_bad_alloc.obj
 0004:00000120       $pdata$__security_init_cookie 000000018002a120     LIBCMT:gs_support.obj
 0004:0000012c       $pdata$__scrt_initialize_default_local_stdio_options 000000018002a12c     LIBCMT:default_local_stdio_options.obj
 0004:00000138       $pdata$__scrt_is_nonwritable_in_current_image 000000018002a138     LIBCMT:utility.obj
 0004:00000144       $pdata$__scrt_is_nonwritable_in_current_image$filt$0 000000018002a144     LIBCMT:utility.obj
 0004:00000150       $pdata$__scrt_acquire_startup_lock 000000018002a150     LIBCMT:utility.obj
 0004:0000015c       $pdata$__scrt_release_startup_lock 000000018002a15c     LIBCMT:utility.obj
 0004:00000168       $pdata$__scrt_initialize_crt 000000018002a168     LIBCMT:utility.obj
 0004:00000174       $pdata$__scrt_uninitialize_crt 000000018002a174     LIBCMT:utility.obj
 0004:00000180       $pdata$__scrt_initialize_onexit_tables 000000018002a180     LIBCMT:utility.obj
 0004:0000018c       $pdata$__scrt_dllmain_exception_filter 000000018002a18c     LIBCMT:utility.obj
 0004:00000198       $pdata$__scrt_dllmain_before_initialize_c 000000018002a198     LIBCMT:utility.obj
 0004:000001a4       $pdata$__scrt_dllmain_after_initialize_c 000000018002a1a4     LIBCMT:utility.obj
 0004:000001b0       $pdata$__scrt_dllmain_uninitialize_c 000000018002a1b0     LIBCMT:utility.obj
 0004:000001bc       $pdata$__scrt_dllmain_uninitialize_critical 000000018002a1bc     LIBCMT:utility.obj
 0004:000001c8       $pdata$__scrt_dllmain_crt_thread_attach 000000018002a1c8     LIBCMT:utility.obj
 0004:000001d4       $pdata$__scrt_dllmain_crt_thread_detach 000000018002a1d4     LIBCMT:utility.obj
 0004:000001e0       $pdata$__scrt_fastfail     000000018002a1e0     LIBCMT:utility_desktop.obj
 0004:000001ec       $pdata$_RTC_Initialize     000000018002a1ec     LIBCMT:initsect.obj
 0004:000001f8       $pdata$_RTC_Terminate      000000018002a1f8     LIBCMT:initsect.obj
 0004:00000204       $pdata$??_Gtype_info@@UEAAPEAXI@Z 000000018002a204     LIBCMT:std_type_info_static.obj
 0004:00000210       $pdata$__isa_available_init 000000018002a210     LIBCMT:cpu_disp.obj
 0004:00000228       $pdata$__C_specific_handler 000000018002a228     libvcruntime:riscchandler.obj
 0004:00000234       $pdata$__std_exception_copy 000000018002a234     libvcruntime:std_exception.obj
 0004:00000240       $pdata$__std_exception_destroy 000000018002a240     libvcruntime:std_exception.obj
 0004:0000024c       $pdata$_CxxThrowException  000000018002a24c     libvcruntime:throw.obj
 0004:00000258       $pdata$__std_type_info_destroy_list 000000018002a258     libvcruntime:std_type_info.obj
 0004:00000264       $pdata$__vcrt_initialize   000000018002a264     libvcruntime:initialization.obj
 0004:00000270       $pdata$__vcrt_uninitialize 000000018002a270     libvcruntime:initialization.obj
 0004:0000027c       $pdata$__vcrt_uninitialize_critical 000000018002a27c     libvcruntime:initialization.obj
 0004:00000288       $pdata$__vcrt_thread_attach 000000018002a288     libvcruntime:initialization.obj
 0004:00000294       $pdata$__vcrt_thread_detach 000000018002a294     libvcruntime:initialization.obj
 0004:000002a0       $pdata$__DestructExceptionObject 000000018002a2a0     libvcruntime:ehhelpers.obj
 0004:000002ac       $pdata$__DestructExceptionObject$filt$0 000000018002a2ac     libvcruntime:ehhelpers.obj
 0004:000002f4       $pdata$__vcrt_initialize_ptd 000000018002a2f4     libvcruntime:per_thread_data.obj
 0004:00000300       $pdata$__vcrt_uninitialize_ptd 000000018002a300     libvcruntime:per_thread_data.obj
 0004:0000030c       $pdata$__vcrt_getptd       000000018002a30c     libvcruntime:per_thread_data.obj
 0004:00000318       $pdata$__vcrt_getptd_noexit 000000018002a318     libvcruntime:per_thread_data.obj
 0004:00000324       $pdata$__vcrt_freeptd      000000018002a324     libvcruntime:per_thread_data.obj
 0004:00000330       $pdata$__vcrt_freefls      000000018002a330     libvcruntime:per_thread_data.obj
 0004:0000033c       $pdata$__vcrt_initialize_locks 000000018002a33c     libvcruntime:locks.obj
 0004:00000348       $pdata$__vcrt_uninitialize_locks 000000018002a348     libvcruntime:locks.obj
 0004:0000036c       $pdata$__vcrt_FlsAlloc     000000018002a36c     libvcruntime:winapi_downlevel.obj
 0004:00000378       $pdata$__vcrt_FlsFree      000000018002a378     libvcruntime:winapi_downlevel.obj
 0004:00000384       $pdata$__vcrt_FlsGetValue  000000018002a384     libvcruntime:winapi_downlevel.obj
 0004:00000390       $pdata$__vcrt_FlsSetValue  000000018002a390     libvcruntime:winapi_downlevel.obj
 0004:0000039c       $pdata$__vcrt_InitializeCriticalSectionEx 000000018002a39c     libvcruntime:winapi_downlevel.obj
 0004:000003a8       $pdata$?try_get_function@@YAPEAXW4function_id@?A0x5a6460af@@QEBDQEBW4module_id@2@2@Z 000000018002a3a8     libvcruntime:winapi_downlevel.obj
 0004:000003e4       $pdata$_ischartype_l       000000018002a3e4     libucrt:strtox.obj
 0004:000003f0       $pdata$wcstol              000000018002a3f0     libucrt:strtox.obj
 0004:000003fc       $pdata$strtol              000000018002a3fc     libucrt:strtox.obj
 0004:00000408       $pdata$_strtoi64           000000018002a408     libucrt:strtox.obj
 0004:00000414       $pdata$_strtoui64          000000018002a414     libucrt:strtox.obj
 0004:00000420       $pdata$??0_LocaleUpdate@@QEAA@QEAU__crt_locale_pointers@@@Z 000000018002a420     libucrt:strtox.obj
 0004:0000042c       $pdata$??$parse_integer@KV?$c_string_character_source@D@__crt_strtox@@@__crt_strtox@@YAKQEAU__crt_locale_pointers@@V?$c_string_character_source@D@0@H_N@Z 000000018002a42c     libucrt:strtox.obj
 0004:00000438       $pdata$??$parse_integer@_KV?$c_string_character_source@D@__crt_strtox@@@__crt_strtox@@YA_KQEAU__crt_locale_pointers@@V?$c_string_character_source@D@0@H_N@Z 000000018002a438     libucrt:strtox.obj
 0004:00000444       $pdata$??$parse_integer@KV?$c_string_character_source@_W@__crt_strtox@@@__crt_strtox@@YAKQEAU__crt_locale_pointers@@V?$c_string_character_source@_W@0@H_N@Z 000000018002a444     libucrt:strtox.obj
 0004:00000450       $pdata$__stdio_common_vfwprintf 000000018002a450     libucrt:output.obj
 0004:0000045c       $pdata$__stdio_common_vsnprintf_s 000000018002a45c     libucrt:output.obj
 0004:00000468       $pdata$??$common_vsprintf@Vstandard_base@__crt_stdio_output@@_W@@YAH_KQEA_W0QEB_WQEAU__crt_locale_pointers@@QEAD@Z 000000018002a468     libucrt:output.obj
 0004:00000474       $pdata$?write_string_impl@?$output_adapter_common@_WV?$stream_output_adapter@_W@__crt_stdio_output@@@__crt_stdio_output@@IEBAXQEB_WHQEAHAEAV__crt_deferred_errno_cache@@@Z 000000018002a474     libucrt:output.obj
 0004:00000480       $pdata$?process@?$output_processor@_WV?$stream_output_adapter@_W@__crt_stdio_output@@V?$standard_base@_WV?$stream_output_adapter@_W@__crt_stdio_output@@@2@@__crt_stdio_output@@QEAAHXZ 000000018002a480     libucrt:output.obj
 0004:0000048c       $pdata$?parse_int_from_format_string@?$output_processor@_WV?$stream_output_adapter@_W@__crt_stdio_output@@V?$standard_base@_WV?$stream_output_adapter@_W@__crt_stdio_output@@@2@@__crt_stdio_output@@AEAA_NQEAH@Z 000000018002a48c     libucrt:output.obj
 0004:0000048c       $pdata$?parse_int_from_format_string@?$output_processor@_WV?$string_output_adapter@_W@__crt_stdio_output@@V?$standard_base@_WV?$string_output_adapter@_W@__crt_stdio_output@@@2@@__crt_stdio_output@@AEAA_NQEAH@Z 000000018002a48c     libucrt:output.obj
 0004:00000498       $pdata$?state_case_size@?$output_processor@_WV?$stream_output_adapter@_W@__crt_stdio_output@@V?$standard_base@_WV?$stream_output_adapter@_W@__crt_stdio_output@@@2@@__crt_stdio_output@@AEAA_NXZ 000000018002a498     libucrt:output.obj
 0004:000004a4       $pdata$?state_case_type@?$output_processor@_WV?$stream_output_adapter@_W@__crt_stdio_output@@V?$standard_base@_WV?$stream_output_adapter@_W@__crt_stdio_output@@@2@@__crt_stdio_output@@AEAA_NXZ 000000018002a4a4     libucrt:output.obj
 0004:000004b0       $pdata$?type_case_c_tchar@?$output_processor@_WV?$stream_output_adapter@_W@__crt_stdio_output@@V?$standard_base@_WV?$stream_output_adapter@_W@__crt_stdio_output@@@2@@__crt_stdio_output@@AEAA_N_W@Z 000000018002a4b0     libucrt:output.obj
 0004:000004b0       $pdata$?type_case_c_tchar@?$output_processor@_WV?$string_output_adapter@_W@__crt_stdio_output@@V?$standard_base@_WV?$string_output_adapter@_W@__crt_stdio_output@@@2@@__crt_stdio_output@@AEAA_N_W@Z 000000018002a4b0     libucrt:output.obj
 0004:000004bc       $pdata$?type_case_Z@?$output_processor@_WV?$stream_output_adapter@_W@__crt_stdio_output@@V?$standard_base@_WV?$stream_output_adapter@_W@__crt_stdio_output@@@2@@__crt_stdio_output@@AEAA_NXZ 000000018002a4bc     libucrt:output.obj
 0004:000004bc       $pdata$?type_case_Z@?$output_processor@_WV?$string_output_adapter@_W@__crt_stdio_output@@V?$standard_base@_WV?$string_output_adapter@_W@__crt_stdio_output@@@2@@__crt_stdio_output@@AEAA_NXZ 000000018002a4bc     libucrt:output.obj
 0004:000004c8       $pdata$?type_case_s@?$output_processor@_WV?$stream_output_adapter@_W@__crt_stdio_output@@V?$standard_base@_WV?$stream_output_adapter@_W@__crt_stdio_output@@@2@@__crt_stdio_output@@AEAA_NXZ 000000018002a4c8     libucrt:output.obj
 0004:000004c8       $pdata$?type_case_s@?$output_processor@_WV?$string_output_adapter@_W@__crt_stdio_output@@V?$standard_base@_WV?$string_output_adapter@_W@__crt_stdio_output@@@2@@__crt_stdio_output@@AEAA_NXZ 000000018002a4c8     libucrt:output.obj
 0004:000004d4       $pdata$?type_case_a@?$output_processor@_WV?$stream_output_adapter@_W@__crt_stdio_output@@V?$standard_base@_WV?$stream_output_adapter@_W@__crt_stdio_output@@@2@@__crt_stdio_output@@AEAA_NXZ 000000018002a4d4     libucrt:output.obj
 0004:000004d4       $pdata$?type_case_a@?$output_processor@_WV?$string_output_adapter@_W@__crt_stdio_output@@V?$standard_base@_WV?$string_output_adapter@_W@__crt_stdio_output@@@2@@__crt_stdio_output@@AEAA_NXZ 000000018002a4d4     libucrt:output.obj
 0004:000004e0       $pdata$?type_case_integer@?$output_processor@_WV?$stream_output_adapter@_W@__crt_stdio_output@@V?$standard_base@_WV?$stream_output_adapter@_W@__crt_stdio_output@@@2@@__crt_stdio_output@@AEAA_NI_N@Z 000000018002a4e0     libucrt:output.obj
 0004:000004e0       $pdata$?type_case_integer@?$output_processor@_WV?$string_output_adapter@_W@__crt_stdio_output@@V?$standard_base@_WV?$string_output_adapter@_W@__crt_stdio_output@@@2@@__crt_stdio_output@@AEAA_NI_N@Z 000000018002a4e0     libucrt:output.obj
 0004:000004ec       $pdata$?type_case_n@?$output_processor@DV?$string_output_adapter@D@__crt_stdio_output@@V?$format_validation_base@DV?$string_output_adapter@D@__crt_stdio_output@@@2@@__crt_stdio_output@@AEAA_NXZ 000000018002a4ec     libucrt:output.obj
 0004:000004ec       $pdata$?type_case_n@?$output_processor@_WV?$stream_output_adapter@_W@__crt_stdio_output@@V?$standard_base@_WV?$stream_output_adapter@_W@__crt_stdio_output@@@2@@__crt_stdio_output@@AEAA_NXZ 000000018002a4ec     libucrt:output.obj
 0004:000004ec       $pdata$?type_case_n@?$output_processor@_WV?$string_output_adapter@_W@__crt_stdio_output@@V?$standard_base@_WV?$string_output_adapter@_W@__crt_stdio_output@@@2@@__crt_stdio_output@@AEAA_NXZ 000000018002a4ec     libucrt:output.obj
 0004:000004f8       $pdata$?write_stored_string_tchar@?$output_processor@_WV?$stream_output_adapter@_W@__crt_stdio_output@@V?$standard_base@_WV?$stream_output_adapter@_W@__crt_stdio_output@@@2@@__crt_stdio_output@@AEAA_N_W@Z 000000018002a4f8     libucrt:output.obj
 0004:00000504       $pdata$??R<lambda_b579ea784fd840951dfbcbdaebf709fd>@@QEBAHXZ 000000018002a504     libucrt:output.obj
 0004:00000510       $pdata$?write_string@?$string_output_adapter@D@__crt_stdio_output@@QEBAXQEBDHQEAHAEAV__crt_deferred_errno_cache@@@Z 000000018002a510     libucrt:output.obj
 0004:0000051c       $pdata$?write_string@?$string_output_adapter@_W@__crt_stdio_output@@QEBAXQEB_WHQEAHAEAV__crt_deferred_errno_cache@@@Z 000000018002a51c     libucrt:output.obj
 0004:00000528       $pdata$?process@?$output_processor@_WV?$string_output_adapter@_W@__crt_stdio_output@@V?$standard_base@_WV?$string_output_adapter@_W@__crt_stdio_output@@@2@@__crt_stdio_output@@QEAAHXZ 000000018002a528     libucrt:output.obj
 0004:00000534       $pdata$?state_case_size@?$output_processor@_WV?$string_output_adapter@_W@__crt_stdio_output@@V?$standard_base@_WV?$string_output_adapter@_W@__crt_stdio_output@@@2@@__crt_stdio_output@@AEAA_NXZ 000000018002a534     libucrt:output.obj
 0004:00000540       $pdata$?state_case_type@?$output_processor@_WV?$string_output_adapter@_W@__crt_stdio_output@@V?$standard_base@_WV?$string_output_adapter@_W@__crt_stdio_output@@@2@@__crt_stdio_output@@AEAA_NXZ 000000018002a540     libucrt:output.obj
 0004:0000054c       $pdata$?write_stored_string_tchar@?$output_processor@_WV?$string_output_adapter@_W@__crt_stdio_output@@V?$standard_base@_WV?$string_output_adapter@_W@__crt_stdio_output@@@2@@__crt_stdio_output@@AEAA_N_W@Z 000000018002a54c     libucrt:output.obj
 0004:00000558       $pdata$??$common_vsprintf@Vformat_validation_base@__crt_stdio_output@@D@@YAH_KQEAD0QEBDQEAU__crt_locale_pointers@@1@Z 000000018002a558     libucrt:output.obj
 0004:00000564       $pdata$??$write_multiple_characters@V?$string_output_adapter@_W@__crt_stdio_output@@D@__crt_stdio_output@@YAXAEBV?$string_output_adapter@_W@0@DHQEAH@Z 000000018002a564     libucrt:output.obj
 0004:00000570       $pdata$??$write_multiple_characters@V?$string_output_adapter@D@__crt_stdio_output@@D@__crt_stdio_output@@YAXAEBV?$string_output_adapter@D@0@DHQEAH@Z 000000018002a570     libucrt:output.obj
 0004:0000057c       $pdata$??$write_multiple_characters@V?$stream_output_adapter@_W@__crt_stdio_output@@D@__crt_stdio_output@@YAXAEBV?$stream_output_adapter@_W@0@DHQEAH@Z 000000018002a57c     libucrt:output.obj
 0004:00000588       $pdata$??$ensure_buffer_is_big_enough@D@formatting_buffer@__crt_stdio_output@@QEAA_N_K@Z 000000018002a588     libucrt:output.obj
 0004:00000594       $pdata$??$ensure_buffer_is_big_enough@_W@formatting_buffer@__crt_stdio_output@@QEAA_N_K@Z 000000018002a594     libucrt:output.obj
 0004:000005a0       $pdata$??$type_case_integer_parse_into_buffer@_K@?$output_processor@_WV?$stream_output_adapter@_W@__crt_stdio_output@@V?$standard_base@_WV?$stream_output_adapter@_W@__crt_stdio_output@@@2@@__crt_stdio_output@@AEAAX_KI_N@Z 000000018002a5a0     libucrt:output.obj
 0004:000005a0       $pdata$??$type_case_integer_parse_into_buffer@_K@?$output_processor@_WV?$string_output_adapter@_W@__crt_stdio_output@@V?$standard_base@_WV?$string_output_adapter@_W@__crt_stdio_output@@@2@@__crt_stdio_output@@AEAAX_KI_N@Z 000000018002a5a0     libucrt:output.obj
 0004:000005ac       $pdata$??$type_case_integer_parse_into_buffer@I@?$output_processor@_WV?$stream_output_adapter@_W@__crt_stdio_output@@V?$standard_base@_WV?$stream_output_adapter@_W@__crt_stdio_output@@@2@@__crt_stdio_output@@AEAAXII_N@Z 000000018002a5ac     libucrt:output.obj
 0004:000005ac       $pdata$??$type_case_integer_parse_into_buffer@I@?$output_processor@_WV?$string_output_adapter@_W@__crt_stdio_output@@V?$standard_base@_WV?$string_output_adapter@_W@__crt_stdio_output@@@2@@__crt_stdio_output@@AEAAXII_N@Z 000000018002a5ac     libucrt:output.obj
 0004:000005b8       $pdata$??$?RV<lambda_676bd5779251ec186b530f0a904b4b35>@@AEAV<lambda_b579ea784fd840951dfbcbdaebf709fd>@@V<lambda_10027885da78ada7fb00668d7e2e96b5>@@@?$__crt_seh_guarded_call@H@@QEAAH$$QEAV<lambda_676bd5779251ec186b530f0a904b4b35>@@AEAV<lambda_b579ea784fd840951dfbcbdaebf709fd>@@$$QEAV<lambda_10027885da78ada7fb00668d7e2e96b5>@@@Z 000000018002a5b8     libucrt:output.obj
 0004:000005c4       $pdata$?fin$0@?0???$?RV<lambda_842d9ff0dc9ef11c61343bbaebe7f885>@@AEAV<lambda_c5860995281e5c4ce005b3de8f5874ee>@@V<lambda_d90129c13df834fdcbf8d2b88dafcf2d>@@@?$__crt_seh_guarded_call@X@@QEAAX$$QEAV<lambda_842d9ff0dc9ef11c61343bbaebe7f885>@@AEAV<lambda_c5860995281e5c4ce005b3de8f5874ee>@@$$QEAV<lambda_d90129c13df834fdcbf8d2b88dafcf2d>@@@Z@4HA 000000018002a5c4     libucrt:fflush.obj
 0004:000005c4       $pdata$?fin$0@?0???$?RV<lambda_c376a267cfb53b6959b3b692ec76b120>@@AEAV<lambda_9a32fed5bf61b6b509b2d3f6003082a1>@@V<lambda_572fbb9fa0ab338edf41edfd4b5fcc8d>@@@?$__crt_seh_guarded_call@H@@QEAAH$$QEAV<lambda_c376a267cfb53b6959b3b692ec76b120>@@AEAV<lambda_9a32fed5bf61b6b509b2d3f6003082a1>@@$$QEAV<lambda_572fbb9fa0ab338edf41edfd4b5fcc8d>@@@Z@4HA 000000018002a5c4     libucrt:fflush.obj
 0004:000005c4       $pdata$?fin$0@?0???$?RV<lambda_676bd5779251ec186b530f0a904b4b35>@@AEAV<lambda_b579ea784fd840951dfbcbdaebf709fd>@@V<lambda_10027885da78ada7fb00668d7e2e96b5>@@@?$__crt_seh_guarded_call@H@@QEAAH$$QEAV<lambda_676bd5779251ec186b530f0a904b4b35>@@AEAV<lambda_b579ea784fd840951dfbcbdaebf709fd>@@$$QEAV<lambda_10027885da78ada7fb00668d7e2e96b5>@@@Z@4HA 000000018002a5c4     libucrt:output.obj
 0004:000005c4       $pdata$?fin$0@?0???$?RV<lambda_84ec643ea9557e2f7dc01bb0e9624395>@@AEAV<lambda_ca71763b3c0644891230e4f79ea54fa6>@@V<lambda_439a761618c59b0600e24586724d733b>@@@?$__crt_seh_guarded_call@H@@QEAAH$$QEAV<lambda_84ec643ea9557e2f7dc01bb0e9624395>@@AEAV<lambda_ca71763b3c0644891230e4f79ea54fa6>@@$$QEAV<lambda_439a761618c59b0600e24586724d733b>@@@Z@4HA 000000018002a5c4     libucrt:setvbuf.obj
 0004:000005d0       $pdata$?process@?$output_processor@DV?$string_output_adapter@D@__crt_stdio_output@@V?$format_validation_base@DV?$string_output_adapter@D@__crt_stdio_output@@@2@@__crt_stdio_output@@QEAAHXZ 000000018002a5d0     libucrt:output.obj
 0004:000005dc       $pdata$?state_case_normal@?$output_processor@DV?$string_output_adapter@D@__crt_stdio_output@@V?$format_validation_base@DV?$string_output_adapter@D@__crt_stdio_output@@@2@@__crt_stdio_output@@AEAA_NXZ 000000018002a5dc     libucrt:output.obj
 0004:000005e8       $pdata$?state_case_normal_tchar@?$output_processor@DV?$string_output_adapter@D@__crt_stdio_output@@V?$format_validation_base@DV?$string_output_adapter@D@__crt_stdio_output@@@2@@__crt_stdio_output@@AEAA_ND@Z 000000018002a5e8     libucrt:output.obj
 0004:000005f4       $pdata$?parse_int_from_format_string@?$output_processor@DV?$string_output_adapter@D@__crt_stdio_output@@V?$format_validation_base@DV?$string_output_adapter@D@__crt_stdio_output@@@2@@__crt_stdio_output@@AEAA_NQEAH@Z 000000018002a5f4     libucrt:output.obj
 0004:00000600       $pdata$?state_case_size@?$output_processor@DV?$string_output_adapter@D@__crt_stdio_output@@V?$format_validation_base@DV?$string_output_adapter@D@__crt_stdio_output@@@2@@__crt_stdio_output@@AEAA_NXZ 000000018002a600     libucrt:output.obj
 0004:0000060c       $pdata$?state_case_type@?$output_processor@DV?$string_output_adapter@D@__crt_stdio_output@@V?$format_validation_base@DV?$string_output_adapter@D@__crt_stdio_output@@@2@@__crt_stdio_output@@AEAA_NXZ 000000018002a60c     libucrt:output.obj
 0004:00000618       $pdata$?type_case_c_tchar@?$output_processor@DV?$string_output_adapter@D@__crt_stdio_output@@V?$format_validation_base@DV?$string_output_adapter@D@__crt_stdio_output@@@2@@__crt_stdio_output@@AEAA_ND@Z 000000018002a618     libucrt:output.obj
 0004:00000624       $pdata$?type_case_s@?$output_processor@DV?$string_output_adapter@D@__crt_stdio_output@@V?$format_validation_base@DV?$string_output_adapter@D@__crt_stdio_output@@@2@@__crt_stdio_output@@AEAA_NXZ 000000018002a624     libucrt:output.obj
 0004:00000630       $pdata$?type_case_a@?$output_processor@DV?$string_output_adapter@D@__crt_stdio_output@@V?$format_validation_base@DV?$string_output_adapter@D@__crt_stdio_output@@@2@@__crt_stdio_output@@AEAA_NXZ 000000018002a630     libucrt:output.obj
 0004:0000063c       $pdata$?type_case_integer@?$output_processor@DV?$string_output_adapter@D@__crt_stdio_output@@V?$format_validation_base@DV?$string_output_adapter@D@__crt_stdio_output@@@2@@__crt_stdio_output@@AEAA_NI_N@Z 000000018002a63c     libucrt:output.obj
 0004:00000648       $pdata$?write_stored_string_tchar@?$output_processor@DV?$string_output_adapter@D@__crt_stdio_output@@V?$format_validation_base@DV?$string_output_adapter@D@__crt_stdio_output@@@2@@__crt_stdio_output@@AEAA_ND@Z 000000018002a648     libucrt:output.obj
 0004:00000654       $pdata$??$type_case_integer_parse_into_buffer@_K@?$output_processor@DV?$string_output_adapter@D@__crt_stdio_output@@V?$format_validation_base@DV?$string_output_adapter@D@__crt_stdio_output@@@2@@__crt_stdio_output@@AEAAX_KI_N@Z 000000018002a654     libucrt:output.obj
 0004:00000660       $pdata$??$type_case_integer_parse_into_buffer@I@?$output_processor@DV?$string_output_adapter@D@__crt_stdio_output@@V?$format_validation_base@DV?$string_output_adapter@D@__crt_stdio_output@@@2@@__crt_stdio_output@@AEAAXII_N@Z 000000018002a660     libucrt:output.obj
 0004:0000066c       $pdata$_errno              000000018002a66c     libucrt:errno.obj
 0004:00000678       $pdata$__doserrno          000000018002a678     libucrt:errno.obj
 0004:00000684       $pdata$__acrt_errno_map_os_error 000000018002a684     libucrt:errno.obj
 0004:00000690       $pdata$fwprintf            000000018002a690     libucrt:assert.obj
 0004:0000069c       $pdata$swprintf            000000018002a69c     libucrt:assert.obj
 0004:000006a8       $pdata$_wassert            000000018002a6a8     libucrt:assert.obj
 0004:000006b4       $pdata$??$common_assert_to_stderr@_W@@YAXQEB_W0I@Z 000000018002a6b4     libucrt:assert.obj
 0004:000006c0       $pdata$??$common_assert_to_message_box@_W@@YAXQEB_W0IQEAX@Z 000000018002a6c0     libucrt:assert.obj
 0004:000006cc       $pdata$??$common_assert_to_message_box_build_string@_W@@YAXQEA_W_KQEB_W2IQEAX@Z 000000018002a6cc     libucrt:assert.obj
 0004:000006d8       $pdata$strerror            000000018002a6d8     libucrt:strerror.obj
 0004:000006e4       $pdata$_stricmp            000000018002a6e4     libucrt:stricmp.obj
 0004:000006f0       $pdata$_stricmp_l          000000018002a6f0     libucrt:stricmp.obj
 0004:000006fc       $pdata$_callnewh           000000018002a6fc     libucrt:new_handler.obj
 0004:00000708       $pdata$_query_new_handler  000000018002a708     libucrt:new_handler.obj
 0004:00000714       $pdata$_query_new_handler$fin$0 000000018002a714     libucrt:new_handler.obj
 0004:00000720       $pdata$_initterm           000000018002a720     libucrt:initterm.obj
 0004:0000072c       $pdata$_initterm_e         000000018002a72c     libucrt:initterm.obj
 0004:00000738       $pdata$_seh_filter_exe     000000018002a738     libucrt:exception_filter.obj
 0004:00000744       $pdata$?try_cor_exit_process@@YAXI@Z 000000018002a744     libucrt:exit.obj
 0004:00000750       $pdata$?exit_or_terminate_process@@YAXI@Z 000000018002a750     libucrt:exit.obj
 0004:0000075c       $pdata$?common_exit@@YAXHW4_crt_exit_cleanup_mode@@W4_crt_exit_return_mode@@@Z 000000018002a75c     libucrt:exit.obj
 0004:00000768       $pdata$??R<lambda_6e4b09c48022b2350581041d5f6b0c4c>@@QEBA@XZ 000000018002a768     libucrt:exit.obj
 0004:00000774       $pdata$?filt$0@?0???R<lambda_6e4b09c48022b2350581041d5f6b0c4c>@@QEBA@XZ@4HA 000000018002a774     libucrt:exit.obj
 0004:00000780       $pdata$??$?RV<lambda_d80eeec6fff315bfe5c115232f3240e3>@@AEAV<lambda_6e4b09c48022b2350581041d5f6b0c4c>@@V<lambda_2358e3775559c9db80273638284d5e45>@@@?$__crt_seh_guarded_call@X@@QEAAX$$QEAV<lambda_d80eeec6fff315bfe5c115232f3240e3>@@AEAV<lambda_6e4b09c48022b2350581041d5f6b0c4c>@@$$QEAV<lambda_2358e3775559c9db80273638284d5e45>@@@Z 000000018002a780     libucrt:exit.obj
 0004:0000078c       $pdata$?fin$0@?0???$?RV<lambda_0ae27a3a962d80f24befdcbee591983d>@@AEAV<lambda_8d0ee55de4b1038c4002e0adecdf1839>@@V<lambda_dc504788e8f1664fe9b84e20bfb512f2>@@@?$__crt_seh_guarded_call@X@@QEAAX$$QEAV<lambda_0ae27a3a962d80f24befdcbee591983d>@@AEAV<lambda_8d0ee55de4b1038c4002e0adecdf1839>@@$$QEAV<lambda_dc504788e8f1664fe9b84e20bfb512f2>@@@Z@4HA 000000018002a78c     libucrt:per_thread_data.obj
 0004:0000078c       $pdata$?fin$0@?0???$?RV<lambda_2d41944a1d46af3157314b8a01080d33>@@AEAV<lambda_8f455de75cd7d7f24b4096f044d8b9e6>@@V<lambda_aa500f224e6afead328df44964fe2772>@@@?$__crt_seh_guarded_call@X@@QEAAX$$QEAV<lambda_2d41944a1d46af3157314b8a01080d33>@@AEAV<lambda_8f455de75cd7d7f24b4096f044d8b9e6>@@$$QEAV<lambda_aa500f224e6afead328df44964fe2772>@@@Z@4HA 000000018002a78c     libucrt:per_thread_data.obj
 0004:0000078c       $pdata$?fin$0@?0???$?RV<lambda_aa87e3671a710a21b5dc78c0bdf72e11>@@AEAV<lambda_92619d2358a28f41a33ba319515a20b9>@@V<lambda_6992ecaafeb10aed2b74cb1fae11a551>@@@?$__crt_seh_guarded_call@X@@QEAAX$$QEAV<lambda_aa87e3671a710a21b5dc78c0bdf72e11>@@AEAV<lambda_92619d2358a28f41a33ba319515a20b9>@@$$QEAV<lambda_6992ecaafeb10aed2b74cb1fae11a551>@@@Z@4HA 000000018002a78c     libucrt:per_thread_data.obj
 0004:0000078c       $pdata$?fin$0@?0???$?RV<lambda_f2e299630e499de9f9a165e60fcd3db5>@@AEAV<lambda_2ae9d31cdba2644fcbeaf08da7c24588>@@V<lambda_40d01ff24d0e7b3814fdbdcee8eab3c7>@@@?$__crt_seh_guarded_call@X@@QEAAX$$QEAV<lambda_f2e299630e499de9f9a165e60fcd3db5>@@AEAV<lambda_2ae9d31cdba2644fcbeaf08da7c24588>@@$$QEAV<lambda_40d01ff24d0e7b3814fdbdcee8eab3c7>@@@Z@4HA 000000018002a78c     libucrt:per_thread_data.obj
 0004:0000078c       $pdata$?fin$0@?0???$?RV<lambda_efdfa57d1f175319df784efa44bb7b81>@@AEAV<lambda_5f0a4c1567f8adc6734073e5d1e1b35c>@@V<lambda_2e8a7d3640ea6ccb4c2413664c2db6fd>@@@?$__crt_seh_guarded_call@X@@QEAAX$$QEAV<lambda_efdfa57d1f175319df784efa44bb7b81>@@AEAV<lambda_5f0a4c1567f8adc6734073e5d1e1b35c>@@$$QEAV<lambda_2e8a7d3640ea6ccb4c2413664c2db6fd>@@@Z@4HA 000000018002a78c     libucrt:mbctype.obj
 0004:0000078c       $pdata$?fin$0@?0???$?RV<lambda_450d765d439847d4c735a33c368b5fc0>@@AEAV<lambda_44731a7d0e6d81c3e6aa82d741081786>@@V<lambda_601a2a7da3b7a96e9554ac7215c4b07c>@@@?$__crt_seh_guarded_call@P6AXH@Z@@QEAAP6AXH@Z$$QEAV<lambda_450d765d439847d4c735a33c368b5fc0>@@AEAV<lambda_44731a7d0e6d81c3e6aa82d741081786>@@$$QEAV<lambda_601a2a7da3b7a96e9554ac7215c4b07c>@@@Z@4HA 000000018002a78c     libucrt:signal.obj
 0004:0000078c       $pdata$?fin$0@?0???$?RV<lambda_d80eeec6fff315bfe5c115232f3240e3>@@AEAV<lambda_6e4b09c48022b2350581041d5f6b0c4c>@@V<lambda_2358e3775559c9db80273638284d5e45>@@@?$__crt_seh_guarded_call@X@@QEAAX$$QEAV<lambda_d80eeec6fff315bfe5c115232f3240e3>@@AEAV<lambda_6e4b09c48022b2350581041d5f6b0c4c>@@$$QEAV<lambda_2358e3775559c9db80273638284d5e45>@@@Z@4HA 000000018002a78c     libucrt:exit.obj
 0004:0000078c       $pdata$?fin$0@?0???$?RV<lambda_7777bce6b2f8c936911f934f8298dc43>@@AEAV<lambda_f03950bc5685219e0bcd2087efbe011e>@@V<lambda_3883c3dff614d5e0c5f61bb1ac94921c>@@@?$__crt_seh_guarded_call@H@@QEAAH$$QEAV<lambda_7777bce6b2f8c936911f934f8298dc43>@@AEAV<lambda_f03950bc5685219e0bcd2087efbe011e>@@$$QEAV<lambda_3883c3dff614d5e0c5f61bb1ac94921c>@@@Z@4HA 000000018002a78c     libucrt:onexit.obj
 0004:00000798       $pdata$_configure_narrow_argv 000000018002a798     libucrt:argv_parsing.obj
 0004:000007a4       $pdata$__acrt_allocate_buffer_for_argv 000000018002a7a4     libucrt:argv_parsing.obj
 0004:000007b0       $pdata$??$parse_command_line@D@@YAXPEADPEAPEAD0PEA_K2@Z 000000018002a7b0     libucrt:argv_parsing.obj
 0004:000007bc       $pdata$__dcrt_uninitialize_environments_nolock 000000018002a7bc     libucrt:environment_initialization.obj
 0004:000007c8       $pdata$??$common_initialize_environment_nolock@D@@YAHXZ 000000018002a7c8     libucrt:environment_initialization.obj
 0004:000007d4       $pdata$??$uninitialize_environment_internal@D@@YAXAEAPEAPEAD@Z 000000018002a7d4     libucrt:environment_initialization.obj
 0004:000007e0       $pdata$??$uninitialize_environment_internal@_W@@YAXAEAPEAPEA_W@Z 000000018002a7e0     libucrt:environment_initialization.obj
 0004:000007ec       $pdata$??$free_environment@D@@YAXQEAPEAD@Z 000000018002a7ec     libucrt:environment_initialization.obj
 0004:000007ec       $pdata$??$free_environment@_W@@YAXQEAPEA_W@Z 000000018002a7ec     libucrt:environment_initialization.obj
 0004:000007f8       $pdata$??$create_environment@D@@YAQEAPEADQEAD@Z 000000018002a7f8     libucrt:environment_initialization.obj
 0004:00000804       $pdata$_execute_onexit_table 000000018002a804     libucrt:onexit.obj
 0004:00000810       $pdata$??R<lambda_f03950bc5685219e0bcd2087efbe011e>@@QEBAHXZ 000000018002a810     libucrt:onexit.obj
 0004:0000081c       $pdata$??$?RV<lambda_7777bce6b2f8c936911f934f8298dc43>@@AEAV<lambda_f03950bc5685219e0bcd2087efbe011e>@@V<lambda_3883c3dff614d5e0c5f61bb1ac94921c>@@@?$__crt_seh_guarded_call@H@@QEAAH$$QEAV<lambda_7777bce6b2f8c936911f934f8298dc43>@@AEAV<lambda_f03950bc5685219e0bcd2087efbe011e>@@$$QEAV<lambda_3883c3dff614d5e0c5f61bb1ac94921c>@@@Z 000000018002a81c     libucrt:onexit.obj
 0004:00000828       $pdata$__acrt_uninitialize 000000018002a828     libucrt:initialization.obj
 0004:00000834       $pdata$__acrt_uninitialize_critical 000000018002a834     libucrt:initialization.obj
 0004:00000840       $pdata$__acrt_thread_attach 000000018002a840     libucrt:initialization.obj
 0004:0000084c       $pdata$__acrt_thread_detach 000000018002a84c     libucrt:initialization.obj
 0004:00000858       $pdata$initialize_c        000000018002a858     libucrt:initialization.obj
 0004:00000864       $pdata$uninitialize_environment 000000018002a864     libucrt:initialization.obj
 0004:00000870       $pdata$initialize_pointers 000000018002a870     libucrt:initialization.obj
 0004:0000087c       $pdata$uninitialize_allocated_memory 000000018002a87c     libucrt:initialization.obj
 0004:00000888       $pdata$uninitialize_allocated_io_buffers 000000018002a888     libucrt:initialization.obj
 0004:00000894       $pdata$terminate           000000018002a894     libucrt:terminate.obj
 0004:000008a0       $pdata$strcpy_s            000000018002a8a0     libucrt:strcpy_s.obj
 0004:000008ac       $pdata$abort               000000018002a8ac     libucrt:abort.obj
 0004:000008c4       $pdata$_invalid_parameter_noinfo 000000018002a8c4     libucrt:invalid_parameter.obj
 0004:000008d0       $pdata$_invoke_watson      000000018002a8d0     libucrt:invalid_parameter.obj
 0004:000008dc       $pdata$__acrt_call_reportfault 000000018002a8dc     libucrt:invalid_parameter.obj
 0004:000008e8       $pdata$_invalid_parameter  000000018002a8e8     libucrt:invalid_parameter.obj
 0004:000008f4       $pdata$__pctype_func       000000018002a8f4     libucrt:ctype.obj
 0004:00000900       $pdata$iswctype            000000018002a900     libucrt:iswctype.obj
 0004:0000090c       $pdata$_isctype_l          000000018002a90c     libucrt:isctype.obj
 0004:00000918       $pdata$__acrt_initialize_ptd 000000018002a918     libucrt:per_thread_data.obj
 0004:00000924       $pdata$__acrt_uninitialize_ptd 000000018002a924     libucrt:per_thread_data.obj
 0004:00000930       $pdata$__acrt_getptd       000000018002a930     libucrt:per_thread_data.obj
 0004:0000093c       $pdata$__acrt_getptd_head  000000018002a93c     libucrt:per_thread_data.obj
 0004:00000948       $pdata$__acrt_getptd_noexit 000000018002a948     libucrt:per_thread_data.obj
 0004:00000954       $pdata$__acrt_freeptd      000000018002a954     libucrt:per_thread_data.obj
 0004:00000960       $pdata$?destroy_fls@@YAXPEAX@Z 000000018002a960     libucrt:per_thread_data.obj
 0004:0000096c       $pdata$?replace_current_thread_locale_nolock@@YAXQEAU__acrt_ptd@@QEAU__crt_locale_data@@@Z 000000018002a96c     libucrt:per_thread_data.obj
 0004:00000978       $pdata$?construct_ptd_array@@YAXQEAU__acrt_ptd@@@Z 000000018002a978     libucrt:per_thread_data.obj
 0004:00000984       $pdata$?destroy_ptd_array@@YAXQEAU__acrt_ptd@@@Z 000000018002a984     libucrt:per_thread_data.obj
 0004:00000990       $pdata$??$?RV<lambda_0ae27a3a962d80f24befdcbee591983d>@@AEAV<lambda_8d0ee55de4b1038c4002e0adecdf1839>@@V<lambda_dc504788e8f1664fe9b84e20bfb512f2>@@@?$__crt_seh_guarded_call@X@@QEAAX$$QEAV<lambda_0ae27a3a962d80f24befdcbee591983d>@@AEAV<lambda_8d0ee55de4b1038c4002e0adecdf1839>@@$$QEAV<lambda_dc504788e8f1664fe9b84e20bfb512f2>@@@Z 000000018002a990     libucrt:per_thread_data.obj
 0004:0000099c       $pdata$??$?RV<lambda_aa87e3671a710a21b5dc78c0bdf72e11>@@AEAV<lambda_92619d2358a28f41a33ba319515a20b9>@@V<lambda_6992ecaafeb10aed2b74cb1fae11a551>@@@?$__crt_seh_guarded_call@X@@QEAAX$$QEAV<lambda_aa87e3671a710a21b5dc78c0bdf72e11>@@AEAV<lambda_92619d2358a28f41a33ba319515a20b9>@@$$QEAV<lambda_6992ecaafeb10aed2b74cb1fae11a551>@@@Z 000000018002a99c     libucrt:per_thread_data.obj
 0004:000009a8       $pdata$??$?RV<lambda_f2e299630e499de9f9a165e60fcd3db5>@@AEAV<lambda_2ae9d31cdba2644fcbeaf08da7c24588>@@V<lambda_40d01ff24d0e7b3814fdbdcee8eab3c7>@@@?$__crt_seh_guarded_call@X@@QEAAX$$QEAV<lambda_f2e299630e499de9f9a165e60fcd3db5>@@AEAV<lambda_2ae9d31cdba2644fcbeaf08da7c24588>@@$$QEAV<lambda_40d01ff24d0e7b3814fdbdcee8eab3c7>@@@Z 000000018002a9a8     libucrt:per_thread_data.obj
 0004:000009b4       $pdata$??$?RV<lambda_2d41944a1d46af3157314b8a01080d33>@@AEAV<lambda_8f455de75cd7d7f24b4096f044d8b9e6>@@V<lambda_aa500f224e6afead328df44964fe2772>@@@?$__crt_seh_guarded_call@X@@QEAAX$$QEAV<lambda_2d41944a1d46af3157314b8a01080d33>@@AEAV<lambda_8f455de75cd7d7f24b4096f044d8b9e6>@@$$QEAV<lambda_aa500f224e6afead328df44964fe2772>@@@Z 000000018002a9b4     libucrt:per_thread_data.obj
 0004:000009c0       $pdata$__acrt_update_locale_info 000000018002a9c0     libucrt:locale_update.obj
 0004:000009cc       $pdata$__acrt_update_multibyte_info 000000018002a9cc     libucrt:locale_update.obj
 0004:000009d8       $pdata$__acrt_uninitialize_locale 000000018002a9d8     libucrt:wsetlocale.obj
 0004:000009e4       $pdata$??$?RV<lambda_410d79af7f07d98d83a3f525b3859a53>@@AEAV<lambda_3e16ef9562a7dcce91392c22ab16ea36>@@V<lambda_38119f0e861e05405d8a144b9b982f0a>@@@?$__crt_seh_guarded_call@X@@QEAAX$$QEAV<lambda_410d79af7f07d98d83a3f525b3859a53>@@AEAV<lambda_3e16ef9562a7dcce91392c22ab16ea36>@@$$QEAV<lambda_38119f0e861e05405d8a144b9b982f0a>@@@Z 000000018002a9e4     libucrt:wsetlocale.obj
 0004:000009f0       $pdata$?fin$0@?0???$?RV<lambda_410d79af7f07d98d83a3f525b3859a53>@@AEAV<lambda_3e16ef9562a7dcce91392c22ab16ea36>@@V<lambda_38119f0e861e05405d8a144b9b982f0a>@@@?$__crt_seh_guarded_call@X@@QEAAX$$QEAV<lambda_410d79af7f07d98d83a3f525b3859a53>@@AEAV<lambda_3e16ef9562a7dcce91392c22ab16ea36>@@$$QEAV<lambda_38119f0e861e05405d8a144b9b982f0a>@@@Z@4HA 000000018002a9f0     libucrt:wsetlocale.obj
 0004:000009fc       $pdata$_free_base          000000018002a9fc     libucrt:free_base.obj
 0004:00000a08       $pdata$_malloc_base        000000018002aa08     libucrt:malloc_base.obj
 0004:00000a14       $pdata$_mbtowc_l           000000018002aa14     libucrt:mbtowc.obj
 0004:00000a20       $pdata$wctomb_s            000000018002aa20     libucrt:wctomb.obj
 0004:00000a2c       $pdata$_wctomb_s_l         000000018002aa2c     libucrt:wctomb.obj
 0004:00000a38       $pdata$__acrt_fp_format    000000018002aa38     libucrt:cvt.obj
 0004:00000a44       $pdata$?fp_format_e_internal@@YAHQEAD_KH_NIQEAU_strflt@@2QEAU__crt_locale_pointers@@@Z 000000018002aa44     libucrt:cvt.obj
 0004:00000a50       $pdata$?fp_format_e@@YAHQEBNQEAD_K12H_NIQEAU__crt_locale_pointers@@@Z 000000018002aa50     libucrt:cvt.obj
 0004:00000a5c       $pdata$?fp_format_a@@YAHQEBNPEAD_KQEAD2H_NIQEAU__crt_locale_pointers@@@Z 000000018002aa5c     libucrt:cvt.obj
 0004:00000a68       $pdata$?fp_format_f_internal@@YAHQEAD_KHQEAU_strflt@@_NQEAU__crt_locale_pointers@@@Z 000000018002aa68     libucrt:cvt.obj
 0004:00000a74       $pdata$?fp_format_g@@YAHQEBNQEAD_K12H_NIQEAU__crt_locale_pointers@@@Z 000000018002aa74     libucrt:cvt.obj
 0004:00000a80       $pdata$_fputwc_nolock      000000018002aa80     libucrt:fputwc.obj
 0004:00000a8c       $pdata$_fileno             000000018002aa8c     libucrt:fileno.obj
 0004:00000a98       $pdata$__acrt_initialize_stdio 000000018002aa98     libucrt:_file.obj
 0004:00000aa4       $pdata$__acrt_uninitialize_stdio 000000018002aaa4     libucrt:_file.obj
 0004:00000ab0       $pdata$__acrt_stdio_begin_temporary_buffering_nolock 000000018002aab0     libucrt:_sftbuf.obj
 0004:00000abc       $pdata$__acrt_stdio_end_temporary_buffering_nolock 000000018002aabc     libucrt:_sftbuf.obj
 0004:00000ac8       $pdata$__acrt_initialize_lowio 000000018002aac8     libucrt:ioinit.obj
 0004:00000ad4       $pdata$__acrt_initialize_lowio$fin$0 000000018002aad4     libucrt:ioinit.obj
 0004:00000ad4       $pdata$__acrt_lowio_ensure_fh_exists$fin$0 000000018002aad4     libucrt:osfinfo.obj
 0004:00000ae0       $pdata$__acrt_uninitialize_lowio 000000018002aae0     libucrt:ioinit.obj
 0004:00000aec       $pdata$?initialize_inherited_file_handles_nolock@@YAXXZ 000000018002aaec     libucrt:ioinit.obj
 0004:00000af8       $pdata$?initialize_stdio_handles_nolock@@YAXXZ 000000018002aaf8     libucrt:ioinit.obj
 0004:00000b04       $pdata$_itow_s             000000018002ab04     libucrt:xtoa.obj
 0004:00000b10       $pdata$??$common_xtox_s@K_W@@YAHKQEA_W_KI_N@Z 000000018002ab10     libucrt:xtoa.obj
 0004:00000b1c       $pdata$??$common_xtox@K_W@@YAHKQEA_W_KI_N@Z 000000018002ab1c     libucrt:xtoa.obj
 0004:00000b28       $pdata$_set_error_mode     000000018002ab28     libucrt:set_error_mode.obj
 0004:00000b34       $pdata$wcscat_s            000000018002ab34     libucrt:wcscat_s.obj
 0004:00000b40       $pdata$wcscpy_s            000000018002ab40     libucrt:wcscpy_s.obj
 0004:00000b4c       $pdata$wcsncat_s           000000018002ab4c     libucrt:wcsncat_s.obj
 0004:00000b58       $pdata$__acrt_GetModuleFileNameA 000000018002ab58     libucrt:getmodulefilenamea.obj
 0004:00000b64       $pdata$??$__acrt_wcs_to_mbs_cp@U__crt_win32_buffer_no_resizing@@@@YAHQEB_WAEAV?$__crt_win32_buffer@DU__crt_win32_buffer_no_resizing@@@@I@Z 000000018002ab64     libucrt:getmodulefilenamea.obj
 0004:00000b70       $pdata$__acrt_show_wide_message_box 000000018002ab70     libucrt:crtmbox.obj
 0004:00000b7c       $pdata$fflush              000000018002ab7c     libucrt:fflush.obj
 0004:00000b88       $pdata$_fflush_nolock      000000018002ab88     libucrt:fflush.obj
 0004:00000b94       $pdata$__acrt_stdio_flush_nolock 000000018002ab94     libucrt:fflush.obj
 0004:00000ba0       $pdata$?common_flush_all@@YAH_N@Z 000000018002aba0     libucrt:fflush.obj
 0004:00000bac       $pdata$??$?RV<lambda_842d9ff0dc9ef11c61343bbaebe7f885>@@AEAV<lambda_c5860995281e5c4ce005b3de8f5874ee>@@V<lambda_d90129c13df834fdcbf8d2b88dafcf2d>@@@?$__crt_seh_guarded_call@X@@QEAAX$$QEAV<lambda_842d9ff0dc9ef11c61343bbaebe7f885>@@AEAV<lambda_c5860995281e5c4ce005b3de8f5874ee>@@$$QEAV<lambda_d90129c13df834fdcbf8d2b88dafcf2d>@@@Z 000000018002abac     libucrt:fflush.obj
 0004:00000bb8       $pdata$??$?RV<lambda_886d6c58226a84441f68b9f2b8217b83>@@AEAV<lambda_ab61a845afdef5b7c387490eaf3616ee>@@V<lambda_f7f22ab5edc0698d5f6905b0d3f44752>@@@?$__crt_seh_guarded_call@X@@QEAAX$$QEAV<lambda_886d6c58226a84441f68b9f2b8217b83>@@AEAV<lambda_ab61a845afdef5b7c387490eaf3616ee>@@$$QEAV<lambda_f7f22ab5edc0698d5f6905b0d3f44752>@@@Z 000000018002abb8     libucrt:fflush.obj
 0004:00000bc4       $pdata$?fin$0@?0???$?RV<lambda_886d6c58226a84441f68b9f2b8217b83>@@AEAV<lambda_ab61a845afdef5b7c387490eaf3616ee>@@V<lambda_f7f22ab5edc0698d5f6905b0d3f44752>@@@?$__crt_seh_guarded_call@X@@QEAAX$$QEAV<lambda_886d6c58226a84441f68b9f2b8217b83>@@AEAV<lambda_ab61a845afdef5b7c387490eaf3616ee>@@$$QEAV<lambda_f7f22ab5edc0698d5f6905b0d3f44752>@@@Z@4HA 000000018002abc4     libucrt:fflush.obj
 0004:00000bd0       $pdata$??$?RV<lambda_c376a267cfb53b6959b3b692ec76b120>@@AEAV<lambda_9a32fed5bf61b6b509b2d3f6003082a1>@@V<lambda_572fbb9fa0ab338edf41edfd4b5fcc8d>@@@?$__crt_seh_guarded_call@H@@QEAAH$$QEAV<lambda_c376a267cfb53b6959b3b692ec76b120>@@AEAV<lambda_9a32fed5bf61b6b509b2d3f6003082a1>@@$$QEAV<lambda_572fbb9fa0ab338edf41edfd4b5fcc8d>@@@Z 000000018002abd0     libucrt:fflush.obj
 0004:00000bdc       $pdata$setvbuf             000000018002abdc     libucrt:setvbuf.obj
 0004:00000be8       $pdata$??R<lambda_ca71763b3c0644891230e4f79ea54fa6>@@QEBAHXZ 000000018002abe8     libucrt:setvbuf.obj
 0004:00000bf4       $pdata$??$?RV<lambda_84ec643ea9557e2f7dc01bb0e9624395>@@AEAV<lambda_ca71763b3c0644891230e4f79ea54fa6>@@V<lambda_439a761618c59b0600e24586724d733b>@@@?$__crt_seh_guarded_call@H@@QEAAH$$QEAV<lambda_84ec643ea9557e2f7dc01bb0e9624395>@@AEAV<lambda_ca71763b3c0644891230e4f79ea54fa6>@@$$QEAV<lambda_439a761618c59b0600e24586724d733b>@@@Z 000000018002abf4     libucrt:setvbuf.obj
 0004:00000c00       $pdata$__acrt_get_sigabrt_handler 000000018002ac00     libucrt:signal.obj
 0004:00000c0c       $pdata$raise               000000018002ac0c     libucrt:signal.obj
 0004:00000c18       $pdata$raise$fin$0         000000018002ac18     libucrt:signal.obj
 0004:00000c24       $pdata$??$?RV<lambda_450d765d439847d4c735a33c368b5fc0>@@AEAV<lambda_44731a7d0e6d81c3e6aa82d741081786>@@V<lambda_601a2a7da3b7a96e9554ac7215c4b07c>@@@?$__crt_seh_guarded_call@P6AXH@Z@@QEAAP6AXH@Z$$QEAV<lambda_450d765d439847d4c735a33c368b5fc0>@@AEAV<lambda_44731a7d0e6d81c3e6aa82d741081786>@@$$QEAV<lambda_601a2a7da3b7a96e9554ac7215c4b07c>@@@Z 000000018002ac24     libucrt:signal.obj
 0004:00000c30       $pdata$_calloc_base        000000018002ac30     libucrt:calloc_base.obj
 0004:00000c3c       $pdata$strncpy_s           000000018002ac3c     libucrt:strncpy_s.obj
 0004:00000c48       $pdata$__acrt_initialize_locks 000000018002ac48     libucrt:locks.obj
 0004:00000c54       $pdata$__acrt_uninitialize_locks 000000018002ac54     libucrt:locks.obj
 0004:00000c60       $pdata$__acrt_get_process_end_policy 000000018002ac60     libucrt:win_policies.obj
 0004:00000c6c       $pdata$__acrt_get_developer_information_policy 000000018002ac6c     libucrt:win_policies.obj
 0004:00000c78       $pdata$__acrt_get_windowing_model_policy 000000018002ac78     libucrt:win_policies.obj
 0004:00000c84       $pdata$??$__acrt_mbs_to_wcs_cp@U__crt_win32_buffer_internal_dynamic_resizing@@@@YAHQEBDAEAV?$__crt_win32_buffer@_WU__crt_win32_buffer_internal_dynamic_resizing@@@@I@Z 000000018002ac84     libucrt:argv_wildcards.obj
 0004:00000c90       $pdata$??$__acrt_wcs_to_mbs_cp@U__crt_win32_buffer_internal_dynamic_resizing@@@@YAHQEB_WAEAV?$__crt_win32_buffer@DU__crt_win32_buffer_internal_dynamic_resizing@@@@I@Z 000000018002ac90     libucrt:argv_wildcards.obj
 0004:00000c9c       $pdata$??$common_expand_argv_wildcards@D@@YAHQEAPEADQEAPEAPEAD@Z 000000018002ac9c     libucrt:argv_wildcards.obj
 0004:00000ca8       $pdata$??$copy_and_add_argument_to_buffer@D@@YAHQEBD0_KAEAV?$argument_list@D@?A0x5f5c8891@@@Z 000000018002aca8     libucrt:argv_wildcards.obj
 0004:00000cb4       $pdata$??$expand_argument_wildcards@D@@YAHQEAD0AEAV?$argument_list@D@?A0x5f5c8891@@@Z 000000018002acb4     libucrt:argv_wildcards.obj
 0004:00000cc0       $pdata$__acrt_update_thread_multibyte_data 000000018002acc0     libucrt:mbctype.obj
 0004:00000ccc       $pdata$__acrt_initialize_multibyte 000000018002accc     libucrt:mbctype.obj
 0004:00000cd8       $pdata$_setmbcp_nolock     000000018002acd8     libucrt:mbctype.obj
 0004:00000ce4       $pdata$?getSystemCP@@YAHH@Z 000000018002ace4     libucrt:mbctype.obj
 0004:00000cf0       $pdata$?setSBCS@@YAXPEAU__crt_multibyte_data@@@Z 000000018002acf0     libucrt:mbctype.obj
 0004:00000cfc       $pdata$?update_thread_multibyte_data_internal@@YAPEAU__crt_multibyte_data@@QEAU__acrt_ptd@@QEAPEAU1@@Z 000000018002acfc     libucrt:mbctype.obj
 0004:00000d08       $pdata$?fin$0@?0??update_thread_multibyte_data_internal@@YAPEAU__crt_multibyte_data@@QEAU__acrt_ptd@@QEAPEAU1@@Z@4HA 000000018002ad08     libucrt:mbctype.obj
 0004:00000d14       $pdata$?setmbcp_internal@@YAHH_NQEAU__acrt_ptd@@QEAPEAU__crt_multibyte_data@@@Z 000000018002ad14     libucrt:mbctype.obj
 0004:00000d20       $pdata$?setSBUpLow@@YAXPEAU__crt_multibyte_data@@@Z 000000018002ad20     libucrt:mbctype.obj
 0004:00000d2c       $pdata$??$?RV<lambda_efdfa57d1f175319df784efa44bb7b81>@@AEAV<lambda_5f0a4c1567f8adc6734073e5d1e1b35c>@@V<lambda_2e8a7d3640ea6ccb4c2413664c2db6fd>@@@?$__crt_seh_guarded_call@X@@QEAAX$$QEAV<lambda_efdfa57d1f175319df784efa44bb7b81>@@AEAV<lambda_5f0a4c1567f8adc6734073e5d1e1b35c>@@$$QEAV<lambda_2e8a7d3640ea6ccb4c2413664c2db6fd>@@@Z 000000018002ad2c     libucrt:mbctype.obj
 0004:00000d38       $pdata$?x_ismbbtype_l@@YAHPEAU__crt_locale_pointers@@IHH@Z 000000018002ad38     libucrt:ismbbyte.obj
 0004:00000d44       $pdata$__acrt_initialize_command_line 000000018002ad44     libucrt:argv_data.obj
 0004:00000d50       $pdata$__acrt_WideCharToMultiByte 000000018002ad50     libucrt:widechartomultibyte.obj
 0004:00000d5c       $pdata$__dcrt_get_narrow_environment_from_os 000000018002ad5c     libucrt:get_environment_from_os.obj
 0004:00000d68       $pdata$_recalloc_base      000000018002ad68     libucrt:recalloc.obj
 0004:00000d74       $pdata$__acrt_initialize_winapi_thunks 000000018002ad74     libucrt:winapi_thunks.obj
 0004:00000d80       $pdata$__acrt_uninitialize_winapi_thunks 000000018002ad80     libucrt:winapi_thunks.obj
 0004:00000d8c       $pdata$__acrt_AreFileApisANSI 000000018002ad8c     libucrt:winapi_thunks.obj
 0004:00000d98       $pdata$__acrt_FlsAlloc     000000018002ad98     libucrt:winapi_thunks.obj
 0004:00000da4       $pdata$__acrt_FlsFree      000000018002ada4     libucrt:winapi_thunks.obj
 0004:00000db0       $pdata$__acrt_FlsGetValue  000000018002adb0     libucrt:winapi_thunks.obj
 0004:00000dbc       $pdata$__acrt_FlsSetValue  000000018002adbc     libucrt:winapi_thunks.obj
 0004:00000dc8       $pdata$__acrt_InitializeCriticalSectionEx 000000018002adc8     libucrt:winapi_thunks.obj
 0004:00000dd4       $pdata$__acrt_LCMapStringEx 000000018002add4     libucrt:winapi_thunks.obj
 0004:00000de0       $pdata$__acrt_LocaleNameToLCID 000000018002ade0     libucrt:winapi_thunks.obj
 0004:00000dec       $pdata$__acrt_MessageBoxW  000000018002adec     libucrt:winapi_thunks.obj
 0004:00000df8       $pdata$__acrt_AppPolicyGetProcessTerminationMethodInternal 000000018002adf8     libucrt:winapi_thunks.obj
 0004:00000e04       $pdata$__acrt_AppPolicyGetShowDeveloperDiagnosticInternal 000000018002ae04     libucrt:winapi_thunks.obj
 0004:00000e10       $pdata$__acrt_AppPolicyGetWindowingModelInternal 000000018002ae10     libucrt:winapi_thunks.obj
 0004:00000e1c       $pdata$__acrt_can_show_message_box 000000018002ae1c     libucrt:winapi_thunks.obj
 0004:00000e28       $pdata$__acrt_get_parent_window 000000018002ae28     libucrt:winapi_thunks.obj
 0004:00000e34       $pdata$__acrt_is_interactive 000000018002ae34     libucrt:winapi_thunks.obj
 0004:00000e40       $pdata$?try_get_function@@YAPEAXW4function_id@?A0x391cf84c@@QEBDQEBW4module_id@2@2@Z 000000018002ae40     libucrt:winapi_thunks.obj
 0004:00000e4c       $pdata$__acrt_initialize_heap 000000018002ae4c     libucrt:heap_handle.obj
 0004:00000e58       $pdata$__acrt_execute_initializers 000000018002ae58     libucrt:shared_initialization.obj
 0004:00000e64       $pdata$__acrt_execute_uninitializers 000000018002ae64     libucrt:shared_initialization.obj
 0004:00000e70       $pdata$__acrt_GetStringTypeA 000000018002ae70     libucrt:getstringtypea.obj
 0004:00000e7c       $pdata$__acrt_release_locale_ref 000000018002ae7c     libucrt:locale_refcounting.obj
 0004:00000e88       $pdata$__acrt_free_locale  000000018002ae88     libucrt:locale_refcounting.obj
 0004:00000e94       $pdata$__acrt_locale_free_lc_time_if_unreferenced 000000018002ae94     libucrt:locale_refcounting.obj
 0004:00000ea0       $pdata$__acrt_update_thread_locale_data 000000018002aea0     libucrt:locale_refcounting.obj
 0004:00000eac       $pdata$__acrt_update_thread_locale_data$fin$0 000000018002aeac     libucrt:locale_refcounting.obj
 0004:00000eb8       $pdata$_updatetlocinfoEx_nolock 000000018002aeb8     libucrt:locale_refcounting.obj
 0004:00000ec4       $pdata$__acrt_locale_free_monetary 000000018002aec4     libucrt:initmon.obj
 0004:00000ed0       $pdata$__acrt_locale_free_numeric 000000018002aed0     libucrt:initnum.obj
 0004:00000edc       $pdata$__acrt_locale_free_time 000000018002aedc     libucrt:inittime.obj
 0004:00000ee8       $pdata$?free_crt_array_internal@@YAXQEAPEBX_K@Z 000000018002aee8     libucrt:inittime.obj
 0004:00000ef4       $pdata$_isleadbyte_l       000000018002aef4     libucrt:_wctype.obj
 0004:00000f00       $pdata$?__mbrtowc_utf8@__crt_mbstring@@YA_KPEA_WPEBD_KPEAU_Mbstatet@@@Z 000000018002af00     libucrt:mbrtowc.obj
 0004:00000f0c       $pdata$?__mbsrtowcs_utf8@__crt_mbstring@@YA_KPEA_WPEAPEBD_KPEAU_Mbstatet@@@Z 000000018002af0c     libucrt:mbrtowc.obj
 0004:00000f18       $pdata$?__c32rtomb_utf8@__crt_mbstring@@YA_KPEAD_UPEAU_Mbstatet@@@Z 000000018002af18     libucrt:c32rtomb.obj
 0004:00000f24       $pdata$__acrt_fp_strflt_to_string 000000018002af24     libucrt:_fptostr.obj
 0004:00000f30       $pdata$memcpy_s            000000018002af30     libucrt:cfout.obj
 0004:00000f3c       $pdata$__acrt_fltout       000000018002af3c     libucrt:cfout.obj
 0004:00000f48       $pdata$?divide@__crt_strtox@@YA_KAEAUbig_integer@1@AEBU21@@Z 000000018002af48     libucrt:cfout.obj
 0004:00000f54       $pdata$0$?divide@__crt_strtox@@YA_KAEAUbig_integer@1@AEBU21@@Z 000000018002af54     libucrt:cfout.obj
 0004:00000f60       $pdata$1$?divide@__crt_strtox@@YA_KAEAUbig_integer@1@AEBU21@@Z 000000018002af60     libucrt:cfout.obj
 0004:00000f6c       $pdata$__acrt_stdio_flush_and_write_narrow_nolock 000000018002af6c     libucrt:_flsbuf.obj
 0004:00000f78       $pdata$__acrt_stdio_flush_and_write_wide_nolock 000000018002af78     libucrt:_flsbuf.obj
 0004:00000f84       $pdata$?stream_is_at_end_of_file_nolock@@YA_NV__crt_stdio_stream@@@Z 000000018002af84     libucrt:_flsbuf.obj
 0004:00000f90       $pdata$??$write_buffer_nolock@D@@YA_NDV__crt_stdio_stream@@@Z 000000018002af90     libucrt:_flsbuf.obj
 0004:00000f9c       $pdata$??$write_buffer_nolock@_W@@YA_N_WV__crt_stdio_stream@@@Z 000000018002af9c     libucrt:_flsbuf.obj
 0004:00000fa8       $pdata$_fcloseall          000000018002afa8     libucrt:closeall.obj
 0004:00000fb4       $pdata$_fcloseall$fin$0    000000018002afb4     libucrt:closeall.obj
 0004:00000fc0       $pdata$__acrt_stdio_free_buffer_nolock 000000018002afc0     libucrt:_freebuf.obj
 0004:00000fcc       $pdata$_isatty             000000018002afcc     libucrt:isatty.obj
 0004:00000fd8       $pdata$_get_osfhandle      000000018002afd8     libucrt:osfinfo.obj
 0004:00000fe4       $pdata$_free_osfhnd        000000018002afe4     libucrt:osfinfo.obj
 0004:00000ff0       $pdata$__acrt_lowio_create_handle_array 000000018002aff0     libucrt:osfinfo.obj
 0004:00000ffc       $pdata$__acrt_lowio_destroy_handle_array 000000018002affc     libucrt:osfinfo.obj
 0004:00001008       $pdata$__acrt_lowio_ensure_fh_exists 000000018002b008     libucrt:osfinfo.obj
 0004:00001014       $pdata$_commit             000000018002b014     libucrt:commit.obj
 0004:00001020       $pdata$??$?RV<lambda_a37b2b86f63e897a80ea819b0eb08c01>@@AEAV<lambda_38ce7e780aa69e748d6df282ebc68efe>@@V<lambda_99fb1378e971ab6e7edea83e3a7a83a2>@@@?$__crt_seh_guarded_call@H@@QEAAH$$QEAV<lambda_a37b2b86f63e897a80ea819b0eb08c01>@@AEAV<lambda_38ce7e780aa69e748d6df282ebc68efe>@@$$QEAV<lambda_99fb1378e971ab6e7edea83e3a7a83a2>@@@Z 000000018002b020     libucrt:commit.obj
 0004:0000102c       $pdata$?fin$0@?0???$?RV<lambda_751a882b2c74d4b022dec766aa51a29a>@@AEAV<lambda_628dfdc04ba53c8bfc02c9951375f3f5>@@V<lambda_f6c7be5f7998530c34de24c7437d6b54>@@@?$__crt_seh_guarded_call@H@@QEAAH$$QEAV<lambda_751a882b2c74d4b022dec766aa51a29a>@@AEAV<lambda_628dfdc04ba53c8bfc02c9951375f3f5>@@$$QEAV<lambda_f6c7be5f7998530c34de24c7437d6b54>@@@Z@4HA 000000018002b02c     libucrt:close.obj
 0004:0000102c       $pdata$?fin$0@?0???$?RV<lambda_a37b2b86f63e897a80ea819b0eb08c01>@@AEAV<lambda_38ce7e780aa69e748d6df282ebc68efe>@@V<lambda_99fb1378e971ab6e7edea83e3a7a83a2>@@@?$__crt_seh_guarded_call@H@@QEAAH$$QEAV<lambda_a37b2b86f63e897a80ea819b0eb08c01>@@AEAV<lambda_38ce7e780aa69e748d6df282ebc68efe>@@$$QEAV<lambda_99fb1378e971ab6e7edea83e3a7a83a2>@@@Z@4HA 000000018002b02c     libucrt:commit.obj
 0004:00001038       $pdata$_write              000000018002b038     libucrt:write.obj
 0004:00001044       $pdata$?fin$0@?0???$common_lseek@_J@@YA_JH_JH@Z@4HA 000000018002b044     libucrt:lseek.obj
 0004:00001044       $pdata$_write$fin$0        000000018002b044     libucrt:write.obj
 0004:00001050       $pdata$_write_nolock       000000018002b050     libucrt:write.obj
 0004:0000105c       $pdata$?write_double_translated_ansi_nolock@@YA?AUwrite_result@?A0x17268360@@HQEBDI@Z 000000018002b05c     libucrt:write.obj
 0004:00001068       $pdata$?write_text_ansi_nolock@@YA?AUwrite_result@?A0x17268360@@HQEBDI@Z 000000018002b068     libucrt:write.obj
 0004:00001074       $pdata$?write_text_utf16le_nolock@@YA?AUwrite_result@?A0x17268360@@HQEBDI@Z 000000018002b074     libucrt:write.obj
 0004:00001080       $pdata$?write_text_utf8_nolock@@YA?AUwrite_result@?A0x17268360@@HQEBDI@Z 000000018002b080     libucrt:write.obj
 0004:0000108c       $pdata$qsort               000000018002b08c     libucrt:qsort.obj
 0004:00001098       $pdata$4$qsort             000000018002b098     libucrt:qsort.obj
 0004:000010a4       $pdata$5$qsort             000000018002b0a4     libucrt:qsort.obj
 0004:000010b0       $pdata$strpbrk             000000018002b0b0     libucrt:strpbrk.obj
 0004:000010bc       $pdata$fallbackMethod      000000018002b0bc     libucrt:strpbrk.obj
 0004:000010c8       $pdata$_mbsdec_l           000000018002b0c8     libucrt:mbsdec.obj
 0004:000010d4       $pdata$__acrt_LCMapStringA 000000018002b0d4     libucrt:lcmapstringa.obj
 0004:000010e0       $pdata$?__acrt_LCMapStringA_stat@@YAHPEAU__crt_locale_pointers@@PEB_WKPEBDHPEADHHH@Z 000000018002b0e0     libucrt:lcmapstringa.obj
 0004:000010ec       $pdata$?initialize_multibyte@@YAHXZ 000000018002b0ec     libucrt:multibyte_initializer.obj
 0004:000010f8       $pdata$_msize_base         000000018002b0f8     libucrt:msize.obj
 0004:00001104       $pdata$_realloc_base       000000018002b104     libucrt:realloc_base.obj
 0004:00001110       $pdata$__acrt_DownlevelLocaleNameToLCID 000000018002b110     libucrt:lcidtoname_downlevel.obj
 0004:0000111c       $pdata$?__mbrtoc32_utf8@__crt_mbstring@@YA_KPEA_UPEBD_KPEAU_Mbstatet@@@Z 000000018002b11c     libucrt:mbrtoc32.obj
 0004:00001128       $pdata$fegetenv            000000018002b128     libucrt:fegetenv.obj
 0004:00001134       $pdata$fesetenv            000000018002b134     libucrt:fesetenv.obj
 0004:00001140       $pdata$feholdexcept        000000018002b140     libucrt:feholdexcept.obj
 0004:00001158       $pdata$??$common_lseek@_J@@YA_JH_JH@Z 000000018002b158     libucrt:lseek.obj
 0004:00001164       $pdata$??$common_lseek_nolock@_J@@YA_JH_JH@Z 000000018002b164     libucrt:lseek.obj
 0004:00001170       $pdata$__acrt_stdio_allocate_buffer_nolock 000000018002b170     libucrt:_getbuf.obj
 0004:0000117c       $pdata$fclose              000000018002b17c     libucrt:fclose.obj
 0004:00001188       $pdata$fclose$fin$0        000000018002b188     libucrt:fclose.obj
 0004:00001194       $pdata$_fclose_nolock      000000018002b194     libucrt:fclose.obj
 0004:000011a0       $pdata$_putwch_nolock      000000018002b1a0     libucrt:putwch.obj
 0004:000011ac       $pdata$__acrt_fenv_set_control 000000018002b1ac     libucrt:_fenvutils.obj
 0004:000011b8       $pdata$_clearfp            000000018002b1b8     libucrt:ieee.obj
 0004:000011c4       $pdata$_call_matherr       000000018002b1c4     libucrt:libm_error.obj
 0004:000011d0       $pdata$_exception_enabled  000000018002b1d0     libucrt:libm_error.obj
 0004:000011dc       $pdata$_handle_error       000000018002b1dc     libucrt:libm_error.obj
 0004:000011e8       $pdata$__acrt_initialize_fma3 000000018002b1e8     libucrt:fma3_available.obj
 0004:000011f4       $pdata$_log_special_common 000000018002b1f4     libucrt:log_special.obj
 0004:00001200       $pdata$_log10_special      000000018002b200     libucrt:log_special.obj
 0004:0000120c       $pdata$_close              000000018002b20c     libucrt:close.obj
 0004:00001218       $pdata$_close_nolock       000000018002b218     libucrt:close.obj
 0004:00001224       $pdata$??$?RV<lambda_751a882b2c74d4b022dec766aa51a29a>@@AEAV<lambda_628dfdc04ba53c8bfc02c9951375f3f5>@@V<lambda_f6c7be5f7998530c34de24c7437d6b54>@@@?$__crt_seh_guarded_call@H@@QEAAH$$QEAV<lambda_751a882b2c74d4b022dec766aa51a29a>@@AEAV<lambda_628dfdc04ba53c8bfc02c9951375f3f5>@@$$QEAV<lambda_f6c7be5f7998530c34de24c7437d6b54>@@@Z 000000018002b224     libucrt:close.obj
 0004:00001230       $pdata$__dcrt_lowio_ensure_console_output_initialized 000000018002b230     libucrt:initcon.obj
 0004:0000123c       $pdata$__dcrt_write_console 000000018002b23c     libucrt:initcon.obj
 0004:00001248       $pdata$__dcrt_terminate_console_output 000000018002b248     libucrt:initcon.obj
 0004:00001260       $pdata$_set_errno_from_matherr 000000018002b260     libucrt:fpexcept.obj
 0004:0000126c       $pdata$_raise_exc          000000018002b26c     libucrt:fpexcept.obj
 0004:00001278       $pdata$_raise_exc_ex       000000018002b278     libucrt:fpexcept.obj
 0004:00001284       $pdata$_clrfp              000000018002b284     libucrt:fpctrl.obj
 0004:00001290       $pdata$_ctrlfp             000000018002b290     libucrt:fpctrl.obj
 0004:0000129c       $pdata$_ctrlfp$filt$0      000000018002b29c     libucrt:fpctrl.obj
 0004:000012a8       $pdata$_statfp             000000018002b2a8     libucrt:fpctrl.obj
 0004:000012b4       $pdata$_set_statfp         000000018002b2b4     libucrt:fpctrl.obj
 0004:000012c0       $pdata$?DloadGetSRWLockFunctionPointers@@YAEXZ 000000018002b2c0     DelayImp:delayhlp.obj
 0004:000012cc       $pdata$?DloadObtainSection@@YAPEAXPEAK0@Z 000000018002b2cc     DelayImp:delayhlp.obj
 0004:000012d8       $pdata$?DloadMakePermanentImageCommit@@YAXPEAX_K@Z 000000018002b2d8     DelayImp:delayhlp.obj
 0004:000012e4       $pdata$?DloadProtectSection@@YAXKPEAK@Z 000000018002b2e4     DelayImp:delayhlp.obj
 0004:000012f0       $pdata$?DloadAcquireSectionWriteAccess@@YAXXZ 000000018002b2f0     DelayImp:delayhlp.obj
 0004:000012fc       $pdata$?DloadReleaseSectionWriteAccess@@YAXXZ 000000018002b2fc     DelayImp:delayhlp.obj
 0004:00001308       $pdata$__delayLoadHelper2  000000018002b308     DelayImp:delayhlp.obj
 0004:00001314       $pdata$_IsNonwritableInCurrentImage 000000018002b314     LIBCMT:pesect.obj
 0004:00001320       $pdata$_IsNonwritableInCurrentImage$filt$0 000000018002b320     LIBCMT:pesect.obj
 0004:0000132c       $pdata$__GSHandlerCheckCommon 000000018002b32c     LIBCMT:gshandler.obj
 0004:00001338       $pdata$__GSHandlerCheck    000000018002b338     LIBCMT:gshandler.obj
 0004:0000135c       $pdata$??$invokeparameter@$0A@@?$WeakCallbackInfo@X@Nan@@CAXAEBV?$WeakCallbackInfo@V?$WeakCallbackInfo@X@Nan@@@v8@@@Z 000000018002b35c     binding.obj
 0004:00001368       $pdata$??$SetMethodAux@V?$Local@VObject@v8@@@v8@@@imp@Nan@@YAXV?$Local@VObject@v8@@@v8@@V?$Local@VString@v8@@@3@V?$Local@VFunctionTemplate@v8@@@3@ZZ 000000018002b368     binding.obj
 0004:00001374       $pdata$??$invokeparameter@$00@?$WeakCallbackInfo@X@Nan@@CAXAEBV?$WeakCallbackInfo@V?$WeakCallbackInfo@X@Nan@@@v8@@@Z 000000018002b374     binding.obj
 0004:00001380       $pdata$??$SetMethod@VObject@v8@@VLocal@2@@Nan@@YAXV?$Local@VObject@v8@@@v8@@PEBDP6AXAEBV?$FunctionCallbackInfo@VValue@v8@@@0@@ZV?$Local@VValue@v8@@@2@@Z 000000018002b380     binding.obj
 0004:0000138c       $pdata$4$??$SetMethod@VObject@v8@@VLocal@2@@Nan@@YAXV?$Local@VObject@v8@@@v8@@PEBDP6AXAEBV?$FunctionCallbackInfo@VValue@v8@@@0@@ZV?$Local@VValue@v8@@@2@@Z 000000018002b38c     binding.obj
 0004:00001398       $pdata$5$??$SetMethod@VObject@v8@@VLocal@2@@Nan@@YAXV?$Local@VObject@v8@@@v8@@PEBDP6AXAEBV?$FunctionCallbackInfo@VValue@v8@@@0@@ZV?$Local@VValue@v8@@@2@@Z 000000018002b398     binding.obj
 0004:000013a4       $pdata$6$??$SetMethod@VObject@v8@@VLocal@2@@Nan@@YAXV?$Local@VObject@v8@@@v8@@PEBDP6AXAEBV?$FunctionCallbackInfo@VValue@v8@@@0@@ZV?$Local@VValue@v8@@@2@@Z 000000018002b3a4     binding.obj
 0004:000013b0       $pdata$7$??$SetMethod@VObject@v8@@VLocal@2@@Nan@@YAXV?$Local@VObject@v8@@@v8@@PEBDP6AXAEBV?$FunctionCallbackInfo@VValue@v8@@@0@@ZV?$Local@VValue@v8@@@2@@Z 000000018002b3b0     binding.obj
 0004:000013bc       $pdata$?init@@YAXV?$Local@VObject@v8@@@v8@@@Z 000000018002b3bc     binding.obj
 0004:000013c8       $pdata$?ReinterpretBufferUntilZeros@?A0x36d5b1ef@@YAXAEBV?$FunctionCallbackInfo@VValue@v8@@@Nan@@@Z 000000018002b3c8     binding.obj
 0004:000013d4       $pdata$0$?ReinterpretBufferUntilZeros@?A0x36d5b1ef@@YAXAEBV?$FunctionCallbackInfo@VValue@v8@@@Nan@@@Z 000000018002b3d4     binding.obj
 0004:000013e0       $pdata$1$?ReinterpretBufferUntilZeros@?A0x36d5b1ef@@YAXAEBV?$FunctionCallbackInfo@VValue@v8@@@Nan@@@Z 000000018002b3e0     binding.obj
 0004:000013ec       $pdata$2$?ReinterpretBufferUntilZeros@?A0x36d5b1ef@@YAXAEBV?$FunctionCallbackInfo@VValue@v8@@@Nan@@@Z 000000018002b3ec     binding.obj
 0004:000013f8       $pdata$4$?ReinterpretBufferUntilZeros@?A0x36d5b1ef@@YAXAEBV?$FunctionCallbackInfo@VValue@v8@@@Nan@@@Z 000000018002b3f8     binding.obj
 0004:00001404       $pdata$?ReinterpretBuffer@?A0x36d5b1ef@@YAXAEBV?$FunctionCallbackInfo@VValue@v8@@@Nan@@@Z 000000018002b404     binding.obj
 0004:00001410       $pdata$0$?ReinterpretBuffer@?A0x36d5b1ef@@YAXAEBV?$FunctionCallbackInfo@VValue@v8@@@Nan@@@Z 000000018002b410     binding.obj
 0004:0000141c       $pdata$1$?ReinterpretBuffer@?A0x36d5b1ef@@YAXAEBV?$FunctionCallbackInfo@VValue@v8@@@Nan@@@Z 000000018002b41c     binding.obj
 0004:00001428       $pdata$2$?ReinterpretBuffer@?A0x36d5b1ef@@YAXAEBV?$FunctionCallbackInfo@VValue@v8@@@Nan@@@Z 000000018002b428     binding.obj
 0004:00001434       $pdata$4$?ReinterpretBuffer@?A0x36d5b1ef@@YAXAEBV?$FunctionCallbackInfo@VValue@v8@@@Nan@@@Z 000000018002b434     binding.obj
 0004:00001440       $pdata$6$?ReinterpretBuffer@?A0x36d5b1ef@@YAXAEBV?$FunctionCallbackInfo@VValue@v8@@@Nan@@@Z 000000018002b440     binding.obj
 0004:0000144c       $pdata$?ReadCString@?A0x36d5b1ef@@YAXAEBV?$FunctionCallbackInfo@VValue@v8@@@Nan@@@Z 000000018002b44c     binding.obj
 0004:00001458       $pdata$0$?ReadCString@?A0x36d5b1ef@@YAXAEBV?$FunctionCallbackInfo@VValue@v8@@@Nan@@@Z 000000018002b458     binding.obj
 0004:00001464       $pdata$1$?ReadCString@?A0x36d5b1ef@@YAXAEBV?$FunctionCallbackInfo@VValue@v8@@@Nan@@@Z 000000018002b464     binding.obj
 0004:00001470       $pdata$?WriteUInt64@?A0x36d5b1ef@@YAXAEBV?$FunctionCallbackInfo@VValue@v8@@@Nan@@@Z 000000018002b470     binding.obj
 0004:0000147c       $pdata$1$?WriteUInt64@?A0x36d5b1ef@@YAXAEBV?$FunctionCallbackInfo@VValue@v8@@@Nan@@@Z 000000018002b47c     binding.obj
 0004:00001488       $pdata$2$?WriteUInt64@?A0x36d5b1ef@@YAXAEBV?$FunctionCallbackInfo@VValue@v8@@@Nan@@@Z 000000018002b488     binding.obj
 0004:00001494       $pdata$?ReadUInt64@?A0x36d5b1ef@@YAXAEBV?$FunctionCallbackInfo@VValue@v8@@@Nan@@@Z 000000018002b494     binding.obj
 0004:000014a0       $pdata$0$?ReadUInt64@?A0x36d5b1ef@@YAXAEBV?$FunctionCallbackInfo@VValue@v8@@@Nan@@@Z 000000018002b4a0     binding.obj
 0004:000014ac       $pdata$1$?ReadUInt64@?A0x36d5b1ef@@YAXAEBV?$FunctionCallbackInfo@VValue@v8@@@Nan@@@Z 000000018002b4ac     binding.obj
 0004:000014b8       $pdata$2$?ReadUInt64@?A0x36d5b1ef@@YAXAEBV?$FunctionCallbackInfo@VValue@v8@@@Nan@@@Z 000000018002b4b8     binding.obj
 0004:000014c4       $pdata$3$?ReadUInt64@?A0x36d5b1ef@@YAXAEBV?$FunctionCallbackInfo@VValue@v8@@@Nan@@@Z 000000018002b4c4     binding.obj
 0004:000014d0       $pdata$?WriteInt64@?A0x36d5b1ef@@YAXAEBV?$FunctionCallbackInfo@VValue@v8@@@Nan@@@Z 000000018002b4d0     binding.obj
 0004:000014dc       $pdata$1$?WriteInt64@?A0x36d5b1ef@@YAXAEBV?$FunctionCallbackInfo@VValue@v8@@@Nan@@@Z 000000018002b4dc     binding.obj
 0004:000014e8       $pdata$2$?WriteInt64@?A0x36d5b1ef@@YAXAEBV?$FunctionCallbackInfo@VValue@v8@@@Nan@@@Z 000000018002b4e8     binding.obj
 0004:000014f4       $pdata$?ReadInt64@?A0x36d5b1ef@@YAXAEBV?$FunctionCallbackInfo@VValue@v8@@@Nan@@@Z 000000018002b4f4     binding.obj
 0004:00001500       $pdata$0$?ReadInt64@?A0x36d5b1ef@@YAXAEBV?$FunctionCallbackInfo@VValue@v8@@@Nan@@@Z 000000018002b500     binding.obj
 0004:0000150c       $pdata$1$?ReadInt64@?A0x36d5b1ef@@YAXAEBV?$FunctionCallbackInfo@VValue@v8@@@Nan@@@Z 000000018002b50c     binding.obj
 0004:00001518       $pdata$2$?ReadInt64@?A0x36d5b1ef@@YAXAEBV?$FunctionCallbackInfo@VValue@v8@@@Nan@@@Z 000000018002b518     binding.obj
 0004:00001524       $pdata$3$?ReadInt64@?A0x36d5b1ef@@YAXAEBV?$FunctionCallbackInfo@VValue@v8@@@Nan@@@Z 000000018002b524     binding.obj
 0004:00001530       $pdata$?WritePointer@?A0x36d5b1ef@@YAXAEBV?$FunctionCallbackInfo@VValue@v8@@@Nan@@@Z 000000018002b530     binding.obj
 0004:0000153c       $pdata$0$?WritePointer@?A0x36d5b1ef@@YAXAEBV?$FunctionCallbackInfo@VValue@v8@@@Nan@@@Z 000000018002b53c     binding.obj
 0004:00001548       $pdata$2$?WritePointer@?A0x36d5b1ef@@YAXAEBV?$FunctionCallbackInfo@VValue@v8@@@Nan@@@Z 000000018002b548     binding.obj
 0004:00001554       $pdata$3$?WritePointer@?A0x36d5b1ef@@YAXAEBV?$FunctionCallbackInfo@VValue@v8@@@Nan@@@Z 000000018002b554     binding.obj
 0004:00001560       $pdata$4$?WritePointer@?A0x36d5b1ef@@YAXAEBV?$FunctionCallbackInfo@VValue@v8@@@Nan@@@Z 000000018002b560     binding.obj
 0004:0000156c       $pdata$?ReadPointer@?A0x36d5b1ef@@YAXAEBV?$FunctionCallbackInfo@VValue@v8@@@Nan@@@Z 000000018002b56c     binding.obj
 0004:00001578       $pdata$1$?ReadPointer@?A0x36d5b1ef@@YAXAEBV?$FunctionCallbackInfo@VValue@v8@@@Nan@@@Z 000000018002b578     binding.obj
 0004:00001584       $pdata$2$?ReadPointer@?A0x36d5b1ef@@YAXAEBV?$FunctionCallbackInfo@VValue@v8@@@Nan@@@Z 000000018002b584     binding.obj
 0004:00001590       $pdata$4$?ReadPointer@?A0x36d5b1ef@@YAXAEBV?$FunctionCallbackInfo@VValue@v8@@@Nan@@@Z 000000018002b590     binding.obj
 0004:0000159c       $pdata$6$?ReadPointer@?A0x36d5b1ef@@YAXAEBV?$FunctionCallbackInfo@VValue@v8@@@Nan@@@Z 000000018002b59c     binding.obj
 0004:000015a8       $pdata$?WriteObject@?A0x36d5b1ef@@YAXAEBV?$FunctionCallbackInfo@VValue@v8@@@Nan@@@Z 000000018002b5a8     binding.obj
 0004:000015b4       $pdata$2$?WriteObject@?A0x36d5b1ef@@YAXAEBV?$FunctionCallbackInfo@VValue@v8@@@Nan@@@Z 000000018002b5b4     binding.obj
 0004:000015c0       $pdata$?ReadObject@?A0x36d5b1ef@@YAXAEBV?$FunctionCallbackInfo@VValue@v8@@@Nan@@@Z 000000018002b5c0     binding.obj
 0004:000015cc       $pdata$0$?ReadObject@?A0x36d5b1ef@@YAXAEBV?$FunctionCallbackInfo@VValue@v8@@@Nan@@@Z 000000018002b5cc     binding.obj
 0004:000015d8       $pdata$1$?ReadObject@?A0x36d5b1ef@@YAXAEBV?$FunctionCallbackInfo@VValue@v8@@@Nan@@@Z 000000018002b5d8     binding.obj
 0004:000015e4       $pdata$?WrapPointer@?A0x36d5b1ef@@YA?AV?$Local@VValue@v8@@@v8@@PEAD_K@Z 000000018002b5e4     binding.obj
 0004:000015f0       $pdata$?IsNull@?A0x36d5b1ef@@YAXAEBV?$FunctionCallbackInfo@VValue@v8@@@Nan@@@Z 000000018002b5f0     binding.obj
 0004:000015fc       $pdata$0$?IsNull@?A0x36d5b1ef@@YAXAEBV?$FunctionCallbackInfo@VValue@v8@@@Nan@@@Z 000000018002b5fc     binding.obj
 0004:00001608       $pdata$1$?IsNull@?A0x36d5b1ef@@YAXAEBV?$FunctionCallbackInfo@VValue@v8@@@Nan@@@Z 000000018002b608     binding.obj
 0004:00001614       $pdata$?HexAddress@?A0x36d5b1ef@@YAXAEBV?$FunctionCallbackInfo@VValue@v8@@@Nan@@@Z 000000018002b614     binding.obj
 0004:00001620       $pdata$0$?HexAddress@?A0x36d5b1ef@@YAXAEBV?$FunctionCallbackInfo@VValue@v8@@@Nan@@@Z 000000018002b620     binding.obj
 0004:0000162c       $pdata$1$?HexAddress@?A0x36d5b1ef@@YAXAEBV?$FunctionCallbackInfo@VValue@v8@@@Nan@@@Z 000000018002b62c     binding.obj
 0004:00001638       $pdata$?Address@?A0x36d5b1ef@@YAXAEBV?$FunctionCallbackInfo@VValue@v8@@@Nan@@@Z 000000018002b638     binding.obj
 0004:00001644       $pdata$1$?Address@?A0x36d5b1ef@@YAXAEBV?$FunctionCallbackInfo@VValue@v8@@@Nan@@@Z 000000018002b644     binding.obj
 0004:00001650       $pdata$2$?Address@?A0x36d5b1ef@@YAXAEBV?$FunctionCallbackInfo@VValue@v8@@@Nan@@@Z 000000018002b650     binding.obj
 0004:0000165c       $pdata$3$?Address@?A0x36d5b1ef@@YAXAEBV?$FunctionCallbackInfo@VValue@v8@@@Nan@@@Z 000000018002b65c     binding.obj
 0004:00001668       $pdata$?GetInt64@?A0x36d5b1ef@@YA_JV?$Local@VValue@v8@@@v8@@@Z 000000018002b668     binding.obj
 0004:00001674       $pdata$0$?GetInt64@?A0x36d5b1ef@@YA_JV?$Local@VValue@v8@@@v8@@@Z 000000018002b674     binding.obj
 0004:00001680       $pdata$1$?GetInt64@?A0x36d5b1ef@@YA_JV?$Local@VValue@v8@@@v8@@@Z 000000018002b680     binding.obj
 0004:0000168c       $pdata$?ForceSet@Nan@@YA?AV?$Maybe@_N@1@V?$Local@VObject@v8@@@v8@@V?$Local@VValue@v8@@@4@1W4PropertyAttribute@4@@Z 000000018002b68c     binding.obj
 0004:00001698       $pdata$?FunctionCallbackWrapper@imp@Nan@@YAXAEBV?$FunctionCallbackInfo@VValue@v8@@@v8@@@Z 000000018002b698     binding.obj
 0004:000016a4       $pdata$_snprintf_s         000000018002b6a4     binding.obj
 0004:000016b0       $pdata$?load_exe_hook@@YAP6A_JXZIPEAUDelayLoadInfo@@@Z 000000018002b6b0     win_delay_load_hook.obj
 0005:00000000       MsetTab                    000000018002c000     libvcruntime:memset.obj
 0005:00000050       MoveSmall                  000000018002c050     libvcruntime:memcpy.obj
 0006:00000060       $R000000                   000000018002d060     * linker generated manifest res *

 Exports

  ordinal    name

        1    _register_binding_
